; ModuleID = '/home/juju/mem_test_rw_seperate/ip/mem_prj/solution1/.autopilot/db/a.o.3.bc'
target datalayout = "e-p:64:64:64-i1:8:8-i8:8:8-i16:16:16-i32:32:32-i64:64:64-f32:32:32-f64:64:64-v64:64:64-v128:128:128-a0:0:64-s0:64:64-f80:128:128-n8:16:32:64-S128"
target triple = "x86_64-unknown-linux-gnu"

@mem_hw_str = internal unnamed_addr constant [7 x i8] c"mem_hw\00" ; [#uses=1 type=[7 x i8]*]
@main_loop_data_loop_s = internal unnamed_addr constant [20 x i8] c"main_loop_data_loop\00" ; [#uses=1 type=[20 x i8]*]
@llvm_global_ctors_1 = appending global [0 x void ()*] zeroinitializer ; [#uses=0 type=[0 x void ()*]*]
@llvm_global_ctors_0 = appending global [0 x i32] zeroinitializer ; [#uses=0 type=[0 x i32]*]
@RAM_1P_str = internal unnamed_addr constant [7 x i8] c"RAM_1P\00" ; [#uses=3 type=[7 x i8]*]
@p_str8 = private unnamed_addr constant [5 x i8] c"both\00", align 1 ; [#uses=6 type=[5 x i8]*]
@p_str7 = private unnamed_addr constant [5 x i8] c"axis\00", align 1 ; [#uses=6 type=[5 x i8]*]
@p_str6 = private unnamed_addr constant [12 x i8] c"CONTROL_BUS\00", align 1 ; [#uses=4 type=[12 x i8]*]
@p_str5 = private unnamed_addr constant [10 x i8] c"s_axilite\00", align 1 ; [#uses=4 type=[10 x i8]*]
@p_str4 = private unnamed_addr constant [10 x i8] c"data_loop\00", align 1 ; [#uses=3 type=[10 x i8]*]
@p_str3 = internal unnamed_addr constant [1 x i8] zeroinitializer ; [#uses=21 type=[1 x i8]*]
@p_str2 = private unnamed_addr constant [1 x i8] zeroinitializer, align 1 ; [#uses=55 type=[1 x i8]*]
@p_str = private unnamed_addr constant [18 x i8] c"loop_wait_for_end\00", align 1 ; [#uses=3 type=[18 x i8]*]

; [#uses=1]
define internal fastcc void @mem_write(i64* %out_stream_V_data_V, i8* %out_stream_V_keep_V, i8* %out_stream_V_strb_V, i1* %out_stream_V_user_V, i1* %out_stream_V_last_V, i1* %out_stream_V_id_V, i1* %out_stream_V_dest_V, i32 %mask, [256 x i64]* nocapture %test_init_arr_V) {
  %empty = call i32 (...)* @_ssdm_op_SpecMemCore([256 x i64]* %test_init_arr_V, [1 x i8]* @p_str3, [7 x i8]* @RAM_1P_str, [1 x i8]* @p_str3, i32 -1, [1 x i8]* @p_str3, [1 x i8]* @p_str3, [1 x i8]* @p_str3, [1 x i8]* @p_str3, [1 x i8]* @p_str3) ; [#uses=0 type=i32]
  call void (...)* @_ssdm_op_SpecInterface(i64* %out_stream_V_data_V, i8* %out_stream_V_keep_V, i8* %out_stream_V_strb_V, i1* %out_stream_V_user_V, i1* %out_stream_V_last_V, i1* %out_stream_V_id_V, i1* %out_stream_V_dest_V, [5 x i8]* @p_str7, i32 1, i32 1, [5 x i8]* @p_str8, i32 0, i32 0, [1 x i8]* @p_str2, [1 x i8]* @p_str2, [1 x i8]* @p_str2, i32 0, i32 0, i32 0, i32 0, [1 x i8]* @p_str2, [1 x i8]* @p_str2) nounwind
  %mask_read = call i32 @_ssdm_op_Read.ap_auto.i32(i32 %mask) ; [#uses=1 type=i32]
  call void @llvm.dbg.value(metadata !{i32 %mask_read}, i64 0, metadata !71), !dbg !10875 ; [debug line = 17:44] [debug variable = mask]
  call void @llvm.dbg.value(metadata !{i32 %mask_read}, i64 0, metadata !10876), !dbg !10883 ; [debug line = 3523:0@43:15] [debug variable = i_op]
  call void @llvm.dbg.value(metadata !{i32 %mask_read}, i64 0, metadata !10890), !dbg !11140 ; [debug line = 1521:66@3523:0@43:15] [debug variable = op]
  call void @llvm.dbg.value(metadata !{i32 %mask_read}, i64 0, metadata !11143), !dbg !11145 ; [debug line = 1521:66@1521:86@3523:0@43:15] [debug variable = op]
  call void @llvm.dbg.value(metadata !{i64* %out_stream_V_data_V}, i64 0, metadata !11147), !dbg !11160 ; [debug line = 17:28] [debug variable = out_stream.V.data.V]
  call void @llvm.dbg.value(metadata !{i8* %out_stream_V_keep_V}, i64 0, metadata !11161), !dbg !11160 ; [debug line = 17:28] [debug variable = out_stream.V.keep.V]
  call void @llvm.dbg.value(metadata !{i8* %out_stream_V_strb_V}, i64 0, metadata !11173), !dbg !11160 ; [debug line = 17:28] [debug variable = out_stream.V.strb.V]
  call void @llvm.dbg.value(metadata !{i1* %out_stream_V_user_V}, i64 0, metadata !11174), !dbg !11160 ; [debug line = 17:28] [debug variable = out_stream.V.user.V]
  call void @llvm.dbg.value(metadata !{i1* %out_stream_V_last_V}, i64 0, metadata !11186), !dbg !11160 ; [debug line = 17:28] [debug variable = out_stream.V.last.V]
  call void @llvm.dbg.value(metadata !{i1* %out_stream_V_id_V}, i64 0, metadata !11187), !dbg !11160 ; [debug line = 17:28] [debug variable = out_stream.V.id.V]
  call void @llvm.dbg.value(metadata !{i1* %out_stream_V_dest_V}, i64 0, metadata !11188), !dbg !11160 ; [debug line = 17:28] [debug variable = out_stream.V.dest.V]
  call void @llvm.dbg.value(metadata !{i32 %mask}, i64 0, metadata !71), !dbg !10875 ; [debug line = 17:44] [debug variable = mask]
  call void @llvm.dbg.value(metadata !{[256 x i64]* %test_init_arr_V}, i64 0, metadata !11189), !dbg !11194 ; [debug line = 17:57] [debug variable = test_init_arr.V]
  %tmp = sext i32 %mask_read to i64, !dbg !11195  ; [#uses=1 type=i64] [debug line = 229:89@229:104@43:15]
  br label %1, !dbg !11202                        ; [debug line = 24:24]

; <label>:1                                       ; preds = %.reset, %0
  %indvar_flatten = phi i20 [ 0, %0 ], [ %indvar_flatten_next, %.reset ] ; [#uses=2 type=i20]
  %i = phi i12 [ 0, %0 ], [ %tmp_1_mid2_v_v, %.reset ] ; [#uses=2 type=i12]
  %tmp_user_V = phi i1 [ true, %0 ], [ false, %.reset ] ; [#uses=1 type=i1]
  %j = phi i9 [ 0, %0 ], [ %j_1, %.reset ]        ; [#uses=2 type=i9]
  %exitcond_flatten = icmp eq i20 %indvar_flatten, -256 ; [#uses=1 type=i1]
  %indvar_flatten_next = add i20 %indvar_flatten, 1 ; [#uses=1 type=i20]
  br i1 %exitcond_flatten, label %2, label %.reset

.reset:                                           ; preds = %1
  call void (...)* @_ssdm_op_SpecLoopName([20 x i8]* @main_loop_data_loop_s)
  call void (...)* @_ssdm_op_SpecLoopTripCount(i64 1048320, i64 1048320, i64 1048320)
  %exitcond6 = icmp eq i9 %j, -256, !dbg !11203   ; [#uses=2 type=i1] [debug line = 26:25]
  %j_mid2 = select i1 %exitcond6, i9 0, i9 %j     ; [#uses=3 type=i9]
  %i_s = add i12 %i, 1, !dbg !11204               ; [#uses=1 type=i12] [debug line = 24:49]
  %tmp_1_mid2_v_v = select i1 %exitcond6, i12 %i_s, i12 %i, !dbg !11205 ; [#uses=2 type=i12] [debug line = 37:4]
  %tmp_1_mid2 = call i20 @_ssdm_op_BitConcatenate.i20.i12.i8(i12 %tmp_1_mid2_v_v, i8 0), !dbg !11205 ; [#uses=1 type=i20] [debug line = 37:4]
  %j_cast3 = zext i9 %j_mid2 to i20, !dbg !11203  ; [#uses=1 type=i20] [debug line = 26:25]
  call void (...)* @_ssdm_op_SpecLoopName([10 x i8]* @p_str4) nounwind, !dbg !11206 ; [debug line = 27:4]
  %tmp_6 = call i32 (...)* @_ssdm_op_SpecRegionBegin([10 x i8]* @p_str4), !dbg !11206 ; [#uses=1 type=i32] [debug line = 27:4]
  call void (...)* @_ssdm_op_SpecPipeline(i32 1, i32 1, i32 1, i32 0, [1 x i8]* @p_str2) nounwind, !dbg !11207 ; [debug line = 29:1]
  %tmp_3 = add i20 %j_cast3, %tmp_1_mid2, !dbg !11205 ; [#uses=1 type=i20] [debug line = 37:4]
  %tmp_last_V = icmp eq i20 %tmp_3, -257, !dbg !11205 ; [#uses=1 type=i1] [debug line = 37:4]
  %tmp_5 = zext i9 %j_mid2 to i64, !dbg !10884    ; [#uses=1 type=i64] [debug line = 43:15]
  %test_init_arr_V_addr = getelementptr [256 x i64]* %test_init_arr_V, i64 0, i64 %tmp_5, !dbg !10884 ; [#uses=1 type=i64*] [debug line = 43:15]
  %test_init_arr_V_load = load i64* %test_init_arr_V_addr, align 8, !dbg !10884 ; [#uses=1 type=i64] [debug line = 43:15]
  call void @llvm.dbg.value(metadata !{i32 %mask}, i64 0, metadata !10876), !dbg !10883 ; [debug line = 3523:0@43:15] [debug variable = i_op]
  call void @llvm.dbg.value(metadata !{i32 %mask}, i64 0, metadata !10890), !dbg !11140 ; [debug line = 1521:66@3523:0@43:15] [debug variable = op]
  call void @llvm.dbg.value(metadata !{i32 %mask}, i64 0, metadata !11143), !dbg !11145 ; [debug line = 1521:66@1521:86@3523:0@43:15] [debug variable = op]
  %axi_data_V = and i64 %test_init_arr_V_load, %tmp, !dbg !11195 ; [#uses=1 type=i64] [debug line = 229:89@229:104@43:15]
  call void @llvm.dbg.value(metadata !{i64 %axi_data_V}, i64 0, metadata !11208), !dbg !11211 ; [debug line = 281:5@43:15] [debug variable = axi.data.V]
  call void @llvm.dbg.value(metadata !{i64* %out_stream_V_data_V}, i64 0, metadata !11214), !dbg !11219 ; [debug line = 105:48@45:4] [debug variable = stream<ap_axiu<64, 1, 1, 1> >.V.data.V]
  call void @llvm.dbg.value(metadata !{i8* %out_stream_V_keep_V}, i64 0, metadata !11221), !dbg !11219 ; [debug line = 105:48@45:4] [debug variable = stream<ap_axiu<64, 1, 1, 1> >.V.keep.V]
  call void @llvm.dbg.value(metadata !{i8* %out_stream_V_strb_V}, i64 0, metadata !11223), !dbg !11219 ; [debug line = 105:48@45:4] [debug variable = stream<ap_axiu<64, 1, 1, 1> >.V.strb.V]
  call void @llvm.dbg.value(metadata !{i1* %out_stream_V_user_V}, i64 0, metadata !11224), !dbg !11219 ; [debug line = 105:48@45:4] [debug variable = stream<ap_axiu<64, 1, 1, 1> >.V.user.V]
  call void @llvm.dbg.value(metadata !{i1* %out_stream_V_last_V}, i64 0, metadata !11226), !dbg !11219 ; [debug line = 105:48@45:4] [debug variable = stream<ap_axiu<64, 1, 1, 1> >.V.last.V]
  call void @llvm.dbg.value(metadata !{i1* %out_stream_V_id_V}, i64 0, metadata !11227), !dbg !11219 ; [debug line = 105:48@45:4] [debug variable = stream<ap_axiu<64, 1, 1, 1> >.V.id.V]
  call void @llvm.dbg.value(metadata !{i1* %out_stream_V_dest_V}, i64 0, metadata !11228), !dbg !11219 ; [debug line = 105:48@45:4] [debug variable = stream<ap_axiu<64, 1, 1, 1> >.V.dest.V]
  call void @llvm.dbg.value(metadata !{i64* %out_stream_V_data_V}, i64 0, metadata !11229), !dbg !11232 ; [debug line = 144:48@106:9@45:4] [debug variable = stream<ap_axiu<64, 1, 1, 1> >.V.data.V]
  call void @llvm.dbg.value(metadata !{i8* %out_stream_V_keep_V}, i64 0, metadata !11235), !dbg !11232 ; [debug line = 144:48@106:9@45:4] [debug variable = stream<ap_axiu<64, 1, 1, 1> >.V.keep.V]
  call void @llvm.dbg.value(metadata !{i8* %out_stream_V_strb_V}, i64 0, metadata !11236), !dbg !11232 ; [debug line = 144:48@106:9@45:4] [debug variable = stream<ap_axiu<64, 1, 1, 1> >.V.strb.V]
  call void @llvm.dbg.value(metadata !{i1* %out_stream_V_user_V}, i64 0, metadata !11237), !dbg !11232 ; [debug line = 144:48@106:9@45:4] [debug variable = stream<ap_axiu<64, 1, 1, 1> >.V.user.V]
  call void @llvm.dbg.value(metadata !{i1* %out_stream_V_last_V}, i64 0, metadata !11238), !dbg !11232 ; [debug line = 144:48@106:9@45:4] [debug variable = stream<ap_axiu<64, 1, 1, 1> >.V.last.V]
  call void @llvm.dbg.value(metadata !{i1* %out_stream_V_id_V}, i64 0, metadata !11239), !dbg !11232 ; [debug line = 144:48@106:9@45:4] [debug variable = stream<ap_axiu<64, 1, 1, 1> >.V.id.V]
  call void @llvm.dbg.value(metadata !{i1* %out_stream_V_dest_V}, i64 0, metadata !11240), !dbg !11232 ; [debug line = 144:48@106:9@45:4] [debug variable = stream<ap_axiu<64, 1, 1, 1> >.V.dest.V]
  call void @llvm.dbg.value(metadata !{i64 %axi_data_V}, i64 0, metadata !11241), !dbg !11244 ; [debug line = 145:31@106:9@45:4] [debug variable = tmp.data.V]
  call void @llvm.dbg.value(metadata !{i1 %tmp_user_V}, i64 0, metadata !11245), !dbg !11244 ; [debug line = 145:31@106:9@45:4] [debug variable = tmp.user.V]
  call void @llvm.dbg.value(metadata !{i1 %tmp_last_V}, i64 0, metadata !11246), !dbg !11244 ; [debug line = 145:31@106:9@45:4] [debug variable = tmp.last.V]
  call void @_ssdm_op_Write.axis.volatile.i64P.i8P.i8P.i1P.i1P.i1P.i1P(i64* %out_stream_V_data_V, i8* %out_stream_V_keep_V, i8* %out_stream_V_strb_V, i1* %out_stream_V_user_V, i1* %out_stream_V_last_V, i1* %out_stream_V_id_V, i1* %out_stream_V_dest_V, i64 %axi_data_V, i8 -1, i8 undef, i1 %tmp_user_V, i1 %tmp_last_V, i1 undef, i1 undef), !dbg !11247 ; [debug line = 146:9@106:9@45:4]
  %empty_2 = call i32 (...)* @_ssdm_op_SpecRegionEnd([10 x i8]* @p_str4, i32 %tmp_6), !dbg !11248 ; [#uses=0 type=i32] [debug line = 46:3]
  %j_1 = add i9 %j_mid2, 1, !dbg !11249           ; [#uses=1 type=i9] [debug line = 26:32]
  call void @llvm.dbg.value(metadata !{i9 %j_1}, i64 0, metadata !11250), !dbg !11249 ; [debug line = 26:32] [debug variable = j]
  br label %1

; <label>:2                                       ; preds = %1
  ret void, !dbg !11251                           ; [debug line = 48:1]
}

; [#uses=2]
define internal fastcc void @mem_read(i64* %in_stream_V_data_V, i8* %in_stream_V_keep_V, i8* %in_stream_V_strb_V, i1* %in_stream_V_user_V, i1* %in_stream_V_last_V, i1* %in_stream_V_id_V, i1* %in_stream_V_dest_V) {
.critedge:
  call void (...)* @_ssdm_op_SpecInterface(i64* %in_stream_V_data_V, i8* %in_stream_V_keep_V, i8* %in_stream_V_strb_V, i1* %in_stream_V_user_V, i1* %in_stream_V_last_V, i1* %in_stream_V_id_V, i1* %in_stream_V_dest_V, [5 x i8]* @p_str7, i32 1, i32 1, [5 x i8]* @p_str8, i32 0, i32 0, [1 x i8]* @p_str2, [1 x i8]* @p_str2, [1 x i8]* @p_str2, i32 0, i32 0, i32 0, i32 0, [1 x i8]* @p_str2, [1 x i8]* @p_str2) nounwind
  call void @llvm.dbg.value(metadata !{i64* %in_stream_V_data_V}, i64 0, metadata !11252), !dbg !11257 ; [debug line = 3:27] [debug variable = in_stream.V.data.V]
  call void @llvm.dbg.value(metadata !{i8* %in_stream_V_keep_V}, i64 0, metadata !11258), !dbg !11257 ; [debug line = 3:27] [debug variable = in_stream.V.keep.V]
  call void @llvm.dbg.value(metadata !{i8* %in_stream_V_strb_V}, i64 0, metadata !11259), !dbg !11257 ; [debug line = 3:27] [debug variable = in_stream.V.strb.V]
  call void @llvm.dbg.value(metadata !{i1* %in_stream_V_user_V}, i64 0, metadata !11260), !dbg !11257 ; [debug line = 3:27] [debug variable = in_stream.V.user.V]
  call void @llvm.dbg.value(metadata !{i1* %in_stream_V_last_V}, i64 0, metadata !11261), !dbg !11257 ; [debug line = 3:27] [debug variable = in_stream.V.last.V]
  call void @llvm.dbg.value(metadata !{i1* %in_stream_V_id_V}, i64 0, metadata !11262), !dbg !11257 ; [debug line = 3:27] [debug variable = in_stream.V.id.V]
  call void @llvm.dbg.value(metadata !{i1* %in_stream_V_dest_V}, i64 0, metadata !11263), !dbg !11257 ; [debug line = 3:27] [debug variable = in_stream.V.dest.V]
  br label %._crit_edge

._crit_edge:                                      ; preds = %._crit_edge, %.critedge
  call void (...)* @_ssdm_op_SpecLoopName([18 x i8]* @p_str) nounwind, !dbg !11264 ; [debug line = 9:37]
  %tmp = call i32 (...)* @_ssdm_op_SpecRegionBegin([18 x i8]* @p_str), !dbg !11264 ; [#uses=1 type=i32] [debug line = 9:37]
  call void (...)* @_ssdm_op_SpecPipeline(i32 1, i32 1, i32 1, i32 0, [1 x i8]* @p_str2) nounwind, !dbg !11267 ; [debug line = 10:1]
  call void (...)* @_ssdm_op_SpecLoopTripCount(i32 0, i32 0, i32 0, [1 x i8]* @p_str2) nounwind, !dbg !11268 ; [debug line = 11:1]
  call void @llvm.dbg.value(metadata !{i64* %in_stream_V_data_V}, i64 0, metadata !11269), !dbg !11272 ; [debug line = 101:48@12:2] [debug variable = stream<ap_axiu<64, 1, 1, 1> >.V.data.V]
  call void @llvm.dbg.value(metadata !{i8* %in_stream_V_keep_V}, i64 0, metadata !11274), !dbg !11272 ; [debug line = 101:48@12:2] [debug variable = stream<ap_axiu<64, 1, 1, 1> >.V.keep.V]
  call void @llvm.dbg.value(metadata !{i8* %in_stream_V_strb_V}, i64 0, metadata !11275), !dbg !11272 ; [debug line = 101:48@12:2] [debug variable = stream<ap_axiu<64, 1, 1, 1> >.V.strb.V]
  call void @llvm.dbg.value(metadata !{i1* %in_stream_V_user_V}, i64 0, metadata !11276), !dbg !11272 ; [debug line = 101:48@12:2] [debug variable = stream<ap_axiu<64, 1, 1, 1> >.V.user.V]
  call void @llvm.dbg.value(metadata !{i1* %in_stream_V_last_V}, i64 0, metadata !11277), !dbg !11272 ; [debug line = 101:48@12:2] [debug variable = stream<ap_axiu<64, 1, 1, 1> >.V.last.V]
  call void @llvm.dbg.value(metadata !{i1* %in_stream_V_id_V}, i64 0, metadata !11278), !dbg !11272 ; [debug line = 101:48@12:2] [debug variable = stream<ap_axiu<64, 1, 1, 1> >.V.id.V]
  call void @llvm.dbg.value(metadata !{i1* %in_stream_V_dest_V}, i64 0, metadata !11279), !dbg !11272 ; [debug line = 101:48@12:2] [debug variable = stream<ap_axiu<64, 1, 1, 1> >.V.dest.V]
  call void @llvm.dbg.value(metadata !{i64* %in_stream_V_data_V}, i64 0, metadata !11280), !dbg !11283 ; [debug line = 123:48@102:9@12:2] [debug variable = stream<ap_axiu<64, 1, 1, 1> >.V.data.V]
  call void @llvm.dbg.value(metadata !{i8* %in_stream_V_keep_V}, i64 0, metadata !11286), !dbg !11283 ; [debug line = 123:48@102:9@12:2] [debug variable = stream<ap_axiu<64, 1, 1, 1> >.V.keep.V]
  call void @llvm.dbg.value(metadata !{i8* %in_stream_V_strb_V}, i64 0, metadata !11287), !dbg !11283 ; [debug line = 123:48@102:9@12:2] [debug variable = stream<ap_axiu<64, 1, 1, 1> >.V.strb.V]
  call void @llvm.dbg.value(metadata !{i1* %in_stream_V_user_V}, i64 0, metadata !11288), !dbg !11283 ; [debug line = 123:48@102:9@12:2] [debug variable = stream<ap_axiu<64, 1, 1, 1> >.V.user.V]
  call void @llvm.dbg.value(metadata !{i1* %in_stream_V_last_V}, i64 0, metadata !11289), !dbg !11283 ; [debug line = 123:48@102:9@12:2] [debug variable = stream<ap_axiu<64, 1, 1, 1> >.V.last.V]
  call void @llvm.dbg.value(metadata !{i1* %in_stream_V_id_V}, i64 0, metadata !11290), !dbg !11283 ; [debug line = 123:48@102:9@12:2] [debug variable = stream<ap_axiu<64, 1, 1, 1> >.V.id.V]
  call void @llvm.dbg.value(metadata !{i1* %in_stream_V_dest_V}, i64 0, metadata !11291), !dbg !11283 ; [debug line = 123:48@102:9@12:2] [debug variable = stream<ap_axiu<64, 1, 1, 1> >.V.dest.V]
  %empty = call { i64, i8, i8, i1, i1, i1, i1 } @_ssdm_op_Read.axis.volatile.i64P.i8P.i8P.i1P.i1P.i1P.i1P(i64* %in_stream_V_data_V, i8* %in_stream_V_keep_V, i8* %in_stream_V_strb_V, i1* %in_stream_V_user_V, i1* %in_stream_V_last_V, i1* %in_stream_V_id_V, i1* %in_stream_V_dest_V), !dbg !11292 ; [#uses=1 type={ i64, i8, i8, i1, i1, i1, i1 }] [debug line = 125:9@102:9@12:2]
  %tmp_last_V = extractvalue { i64, i8, i8, i1, i1, i1, i1 } %empty, 4, !dbg !11292 ; [#uses=1 type=i1] [debug line = 125:9@102:9@12:2]
  call void @llvm.dbg.value(metadata !{i1 %tmp_last_V}, i64 0, metadata !11294), !dbg !11292 ; [debug line = 125:9@102:9@12:2] [debug variable = tmp.last.V]
  %empty_3 = call i32 (...)* @_ssdm_op_SpecRegionEnd([18 x i8]* @p_str, i32 %tmp), !dbg !11296 ; [#uses=0 type=i32] [debug line = 14:4]
  br i1 %tmp_last_V, label %0, label %._crit_edge, !dbg !11297 ; [debug line = 9:23]

; <label>:0                                       ; preds = %._crit_edge
  ret void, !dbg !11298                           ; [debug line = 15:1]
}

; [#uses=0]
define void @mem_hw(i64* %out_V_data_V, i8* %out_V_keep_V, i8* %out_V_strb_V, i1* %out_V_user_V, i1* %out_V_last_V, i1* %out_V_id_V, i1* %out_V_dest_V, i64* %in_V_data_V, i8* %in_V_keep_V, i8* %in_V_strb_V, i1* %in_V_user_V, i1* %in_V_last_V, i1* %in_V_id_V, i1* %in_V_dest_V, i32 %rw, i64 %mask, [256 x i64]* %test_init_arr_V) {
codeRepl:
  call void (...)* @_ssdm_op_SpecDataflowPipeline(i32 -1, [1 x i8]* @p_str2) nounwind, !dbg !11299 ; [debug line = 62:1]
  call void (...)* @_ssdm_op_SpecBitsMap(i64* %out_V_data_V), !map !11305
  call void (...)* @_ssdm_op_SpecBitsMap(i8* %out_V_keep_V), !map !11309
  call void (...)* @_ssdm_op_SpecBitsMap(i8* %out_V_strb_V), !map !11313
  call void (...)* @_ssdm_op_SpecBitsMap(i1* %out_V_user_V), !map !11317
  call void (...)* @_ssdm_op_SpecBitsMap(i1* %out_V_last_V), !map !11321
  call void (...)* @_ssdm_op_SpecBitsMap(i1* %out_V_id_V), !map !11325
  call void (...)* @_ssdm_op_SpecBitsMap(i1* %out_V_dest_V), !map !11329
  call void (...)* @_ssdm_op_SpecBitsMap(i64* %in_V_data_V), !map !11333
  call void (...)* @_ssdm_op_SpecBitsMap(i8* %in_V_keep_V), !map !11337
  call void (...)* @_ssdm_op_SpecBitsMap(i8* %in_V_strb_V), !map !11341
  call void (...)* @_ssdm_op_SpecBitsMap(i1* %in_V_user_V), !map !11345
  call void (...)* @_ssdm_op_SpecBitsMap(i1* %in_V_last_V), !map !11349
  call void (...)* @_ssdm_op_SpecBitsMap(i1* %in_V_id_V), !map !11353
  call void (...)* @_ssdm_op_SpecBitsMap(i1* %in_V_dest_V), !map !11357
  call void (...)* @_ssdm_op_SpecBitsMap(i32 %rw), !map !11361
  call void (...)* @_ssdm_op_SpecBitsMap(i64 %mask), !map !11367
  call void (...)* @_ssdm_op_SpecBitsMap([256 x i64]* %test_init_arr_V), !map !11371
  call void (...)* @_ssdm_op_SpecTopModule([7 x i8]* @mem_hw_str) nounwind
  call void (...)* @_ssdm_op_SpecDataflowPipeline(i32 -1, [1 x i8]* @p_str2) nounwind, !dbg !11377 ; [debug line = 52:1]
  call void (...)* @_ssdm_op_SpecInterface(i32 0, [10 x i8]* @p_str5, i32 0, i32 0, [1 x i8]* @p_str2, i32 0, i32 0, [12 x i8]* @p_str6, [1 x i8]* @p_str2, [1 x i8]* @p_str2, i32 0, i32 0, i32 0, i32 0, [1 x i8]* @p_str2, [1 x i8]* @p_str2) nounwind, !dbg !11378 ; [debug line = 53:1]
  call void (...)* @_ssdm_op_SpecInterface(i64 %mask, [10 x i8]* @p_str5, i32 0, i32 0, [1 x i8]* @p_str2, i32 0, i32 0, [12 x i8]* @p_str6, [1 x i8]* @p_str2, [1 x i8]* @p_str2, i32 0, i32 0, i32 0, i32 0, [1 x i8]* @p_str2, [1 x i8]* @p_str2) nounwind, !dbg !11379 ; [debug line = 54:1]
  call void (...)* @_ssdm_op_SpecInterface(i32 %rw, [10 x i8]* @p_str5, i32 0, i32 0, [1 x i8]* @p_str2, i32 0, i32 0, [12 x i8]* @p_str6, [1 x i8]* @p_str2, [1 x i8]* @p_str2, i32 0, i32 0, i32 0, i32 0, [1 x i8]* @p_str2, [1 x i8]* @p_str2) nounwind, !dbg !11380 ; [debug line = 55:1]
  %empty = call i32 (...)* @_ssdm_op_SpecMemCore([256 x i64]* %test_init_arr_V, [1 x i8]* @p_str3, [7 x i8]* @RAM_1P_str, [1 x i8]* @p_str3, i32 -1, [1 x i8]* @p_str3, [1 x i8]* @p_str3, [1 x i8]* @p_str3, [1 x i8]* @p_str3, [1 x i8]* @p_str3) ; [#uses=0 type=i32]
  call void (...)* @_ssdm_op_SpecInterface([256 x i64]* %test_init_arr_V, [10 x i8]* @p_str5, i32 0, i32 0, [1 x i8]* @p_str2, i32 0, i32 0, [12 x i8]* @p_str6, [1 x i8]* @p_str2, [1 x i8]* @p_str2, i32 0, i32 0, i32 0, i32 0, [1 x i8]* @p_str2, [1 x i8]* @p_str2) nounwind
  call void (...)* @_ssdm_op_SpecInterface(i64* %out_V_data_V, i8* %out_V_keep_V, i8* %out_V_strb_V, i1* %out_V_user_V, i1* %out_V_last_V, i1* %out_V_id_V, i1* %out_V_dest_V, [5 x i8]* @p_str7, i32 1, i32 1, [5 x i8]* @p_str8, i32 0, i32 0, [1 x i8]* @p_str2, [1 x i8]* @p_str2, [1 x i8]* @p_str2, i32 0, i32 0, i32 0, i32 0, [1 x i8]* @p_str2, [1 x i8]* @p_str2) nounwind, !dbg !11381 ; [debug line = 57:1]
  call void (...)* @_ssdm_op_SpecInterface(i64* %in_V_data_V, i8* %in_V_keep_V, i8* %in_V_strb_V, i1* %in_V_user_V, i1* %in_V_last_V, i1* %in_V_id_V, i1* %in_V_dest_V, [5 x i8]* @p_str7, i32 1, i32 1, [5 x i8]* @p_str8, i32 0, i32 0, [1 x i8]* @p_str2, [1 x i8]* @p_str2, [1 x i8]* @p_str2, i32 0, i32 0, i32 0, i32 0, [1 x i8]* @p_str2, [1 x i8]* @p_str2) nounwind, !dbg !11382 ; [debug line = 58:1]
  %mask_read = call i64 @_ssdm_op_Read.s_axilite.i64(i64 %mask) ; [#uses=1 type=i64]
  call void @llvm.dbg.value(metadata !{i64 %mask_read}, i64 0, metadata !11383), !dbg !11384 ; [debug line = 50:68] [debug variable = mask]
  %rw_read = call i32 @_ssdm_op_Read.s_axilite.i32(i32 %rw) ; [#uses=1 type=i32]
  call void @llvm.dbg.value(metadata !{i32 %rw_read}, i64 0, metadata !11385), !dbg !11386 ; [debug line = 50:50] [debug variable = rw]
  call void @llvm.dbg.value(metadata !{i64* %out_V_data_V}, i64 0, metadata !11387), !dbg !11389 ; [debug line = 50:25] [debug variable = out.V.data.V]
  call void @llvm.dbg.value(metadata !{i8* %out_V_keep_V}, i64 0, metadata !11390), !dbg !11389 ; [debug line = 50:25] [debug variable = out.V.keep.V]
  call void @llvm.dbg.value(metadata !{i8* %out_V_strb_V}, i64 0, metadata !11391), !dbg !11389 ; [debug line = 50:25] [debug variable = out.V.strb.V]
  call void @llvm.dbg.value(metadata !{i1* %out_V_user_V}, i64 0, metadata !11392), !dbg !11389 ; [debug line = 50:25] [debug variable = out.V.user.V]
  call void @llvm.dbg.value(metadata !{i1* %out_V_last_V}, i64 0, metadata !11393), !dbg !11389 ; [debug line = 50:25] [debug variable = out.V.last.V]
  call void @llvm.dbg.value(metadata !{i1* %out_V_id_V}, i64 0, metadata !11394), !dbg !11389 ; [debug line = 50:25] [debug variable = out.V.id.V]
  call void @llvm.dbg.value(metadata !{i1* %out_V_dest_V}, i64 0, metadata !11395), !dbg !11389 ; [debug line = 50:25] [debug variable = out.V.dest.V]
  call void @llvm.dbg.value(metadata !{i64* %in_V_data_V}, i64 0, metadata !11396), !dbg !11398 ; [debug line = 50:42] [debug variable = in.V.data.V]
  call void @llvm.dbg.value(metadata !{i8* %in_V_keep_V}, i64 0, metadata !11399), !dbg !11398 ; [debug line = 50:42] [debug variable = in.V.keep.V]
  call void @llvm.dbg.value(metadata !{i8* %in_V_strb_V}, i64 0, metadata !11400), !dbg !11398 ; [debug line = 50:42] [debug variable = in.V.strb.V]
  call void @llvm.dbg.value(metadata !{i1* %in_V_user_V}, i64 0, metadata !11401), !dbg !11398 ; [debug line = 50:42] [debug variable = in.V.user.V]
  call void @llvm.dbg.value(metadata !{i1* %in_V_last_V}, i64 0, metadata !11402), !dbg !11398 ; [debug line = 50:42] [debug variable = in.V.last.V]
  call void @llvm.dbg.value(metadata !{i1* %in_V_id_V}, i64 0, metadata !11403), !dbg !11398 ; [debug line = 50:42] [debug variable = in.V.id.V]
  call void @llvm.dbg.value(metadata !{i1* %in_V_dest_V}, i64 0, metadata !11404), !dbg !11398 ; [debug line = 50:42] [debug variable = in.V.dest.V]
  call void @llvm.dbg.value(metadata !{i32 %rw}, i64 0, metadata !11385), !dbg !11386 ; [debug line = 50:50] [debug variable = rw]
  call void @llvm.dbg.value(metadata !{i64 %mask}, i64 0, metadata !11383), !dbg !11384 ; [debug line = 50:68] [debug variable = mask]
  call void @llvm.dbg.value(metadata !{[256 x i64]* %test_init_arr_V}, i64 0, metadata !11405), !dbg !11407 ; [debug line = 50:81] [debug variable = test_init_arr.V]
  call fastcc void @Block__proc(i32 %rw_read, i64* %in_V_data_V, i8* %in_V_keep_V, i8* %in_V_strb_V, i1* %in_V_user_V, i1* %in_V_last_V, i1* %in_V_id_V, i1* %in_V_dest_V, i64 %mask_read, i64* %out_V_data_V, i8* %out_V_keep_V, i8* %out_V_strb_V, i1* %out_V_user_V, i1* %out_V_last_V, i1* %out_V_id_V, i1* %out_V_dest_V, [256 x i64]* %test_init_arr_V)
  ret void, !dbg !11408                           ; [debug line = 71:1]
}

; [#uses=76]
declare void @llvm.dbg.value(metadata, i64, metadata) nounwind readnone

; [#uses=1]
define weak void @_ssdm_op_Write.axis.volatile.i64P.i8P.i8P.i1P.i1P.i1P.i1P(i64*, i8*, i8*, i1*, i1*, i1*, i1*, i64, i8, i8, i1, i1, i1, i1) {
entry:
  store i64 %7, i64* %0
  store i8 %8, i8* %1
  store i8 %9, i8* %2
  store i1 %10, i1* %3
  store i1 %11, i1* %4
  store i1 %12, i1* %5
  store i1 %13, i1* %6
  ret void
}

; [#uses=1]
define weak void @_ssdm_op_SpecTopModule(...) {
entry:
  ret void
}

; [#uses=2]
define weak i32 @_ssdm_op_SpecRegionEnd(...) {
entry:
  ret i32 0
}

; [#uses=2]
define weak i32 @_ssdm_op_SpecRegionBegin(...) {
entry:
  ret i32 0
}

; [#uses=2]
define weak void @_ssdm_op_SpecPipeline(...) nounwind {
entry:
  ret void
}

; [#uses=3]
define weak i32 @_ssdm_op_SpecMemCore(...) {
entry:
  ret i32 0
}

; [#uses=2]
define weak void @_ssdm_op_SpecLoopTripCount(...) nounwind {
entry:
  ret void
}

; [#uses=3]
define weak void @_ssdm_op_SpecLoopName(...) nounwind {
entry:
  ret void
}

; [#uses=10]
define weak void @_ssdm_op_SpecInterface(...) nounwind {
entry:
  ret void
}

; [#uses=2]
define weak void @_ssdm_op_SpecDataflowPipeline(...) nounwind {
entry:
  ret void
}

; [#uses=17]
define weak void @_ssdm_op_SpecBitsMap(...) {
entry:
  ret void
}

; [#uses=1]
define weak i64 @_ssdm_op_Read.s_axilite.i64(i64) {
entry:
  ret i64 %0
}

; [#uses=1]
define weak i32 @_ssdm_op_Read.s_axilite.i32(i32) {
entry:
  ret i32 %0
}

; [#uses=1]
define weak { i64, i8, i8, i1, i1, i1, i1 } @_ssdm_op_Read.axis.volatile.i64P.i8P.i8P.i1P.i1P.i1P.i1P(i64*, i8*, i8*, i1*, i1*, i1*, i1*) {
entry:
  %empty = load i64* %0                           ; [#uses=1 type=i64]
  %empty_4 = load i8* %1                          ; [#uses=1 type=i8]
  %empty_5 = load i8* %2                          ; [#uses=1 type=i8]
  %empty_6 = load i1* %3                          ; [#uses=1 type=i1]
  %empty_7 = load i1* %4                          ; [#uses=1 type=i1]
  %empty_8 = load i1* %5                          ; [#uses=1 type=i1]
  %empty_9 = load i1* %6                          ; [#uses=1 type=i1]
  %mrv_0 = insertvalue { i64, i8, i8, i1, i1, i1, i1 } undef, i64 %empty, 0 ; [#uses=1 type={ i64, i8, i8, i1, i1, i1, i1 }]
  %mrv1 = insertvalue { i64, i8, i8, i1, i1, i1, i1 } %mrv_0, i8 %empty_4, 1 ; [#uses=1 type={ i64, i8, i8, i1, i1, i1, i1 }]
  %mrv2 = insertvalue { i64, i8, i8, i1, i1, i1, i1 } %mrv1, i8 %empty_5, 2 ; [#uses=1 type={ i64, i8, i8, i1, i1, i1, i1 }]
  %mrv3 = insertvalue { i64, i8, i8, i1, i1, i1, i1 } %mrv2, i1 %empty_6, 3 ; [#uses=1 type={ i64, i8, i8, i1, i1, i1, i1 }]
  %mrv4 = insertvalue { i64, i8, i8, i1, i1, i1, i1 } %mrv3, i1 %empty_7, 4 ; [#uses=1 type={ i64, i8, i8, i1, i1, i1, i1 }]
  %mrv5 = insertvalue { i64, i8, i8, i1, i1, i1, i1 } %mrv4, i1 %empty_8, 5 ; [#uses=1 type={ i64, i8, i8, i1, i1, i1, i1 }]
  %mrv6 = insertvalue { i64, i8, i8, i1, i1, i1, i1 } %mrv5, i1 %empty_9, 6 ; [#uses=1 type={ i64, i8, i8, i1, i1, i1, i1 }]
  ret { i64, i8, i8, i1, i1, i1, i1 } %mrv6
}

; [#uses=1]
define weak i64 @_ssdm_op_Read.ap_auto.i64(i64) {
entry:
  ret i64 %0
}

; [#uses=2]
define weak i32 @_ssdm_op_Read.ap_auto.i32(i32) {
entry:
  ret i32 %0
}

; [#uses=0]
declare i32 @_ssdm_op_PartSelect.i32.i64.i32.i32(i64, i32, i32) nounwind readnone

; [#uses=0]
declare i2 @_ssdm_op_PartSelect.i2.i32.i32.i32(i32, i32, i32) nounwind readnone

; [#uses=0]
declare i1 @_ssdm_op_PartSelect.i1.i32.i32.i32(i32, i32, i32) nounwind readnone

; [#uses=1]
define weak i20 @_ssdm_op_BitConcatenate.i20.i12.i8(i12, i8) nounwind readnone {
entry:
  %empty = zext i12 %0 to i20                     ; [#uses=1 type=i20]
  %empty_10 = zext i8 %1 to i20                   ; [#uses=1 type=i20]
  %empty_11 = shl i20 %empty, 8                   ; [#uses=1 type=i20]
  %empty_12 = or i20 %empty_11, %empty_10         ; [#uses=1 type=i20]
  ret i20 %empty_12
}

; [#uses=1]
define internal fastcc void @Block__proc(i32 %rw, i64* %in_V_data_V, i8* %in_V_keep_V, i8* %in_V_strb_V, i1* %in_V_user_V, i1* %in_V_last_V, i1* %in_V_id_V, i1* %in_V_dest_V, i64 %mask, i64* %out_V_data_V, i8* %out_V_keep_V, i8* %out_V_strb_V, i1* %out_V_user_V, i1* %out_V_last_V, i1* %out_V_id_V, i1* %out_V_dest_V, [256 x i64]* nocapture %test_init_arr_V) {
newFuncRoot:
  %empty = call i32 (...)* @_ssdm_op_SpecMemCore([256 x i64]* %test_init_arr_V, [1 x i8]* @p_str3, [7 x i8]* @RAM_1P_str, [1 x i8]* @p_str3, i32 -1, [1 x i8]* @p_str3, [1 x i8]* @p_str3, [1 x i8]* @p_str3, [1 x i8]* @p_str3, [1 x i8]* @p_str3) ; [#uses=0 type=i32]
  call void (...)* @_ssdm_op_SpecInterface(i1* %in_V_dest_V, i1* %in_V_id_V, i1* %in_V_last_V, i1* %in_V_user_V, i8* %in_V_strb_V, i8* %in_V_keep_V, i64* %in_V_data_V, [5 x i8]* @p_str7, i32 1, i32 1, [5 x i8]* @p_str8, i32 0, i32 0, [1 x i8]* @p_str2, [1 x i8]* @p_str2, [1 x i8]* @p_str2, i32 0, i32 0, i32 0, i32 0, [1 x i8]* @p_str2, [1 x i8]* @p_str2)
  call void (...)* @_ssdm_op_SpecInterface(i1* %out_V_dest_V, i1* %out_V_id_V, i1* %out_V_last_V, i1* %out_V_user_V, i8* %out_V_strb_V, i8* %out_V_keep_V, i64* %out_V_data_V, [5 x i8]* @p_str7, i32 1, i32 1, [5 x i8]* @p_str8, i32 0, i32 0, [1 x i8]* @p_str2, [1 x i8]* @p_str2, [1 x i8]* @p_str2, i32 0, i32 0, i32 0, i32 0, [1 x i8]* @p_str2, [1 x i8]* @p_str2)
  %mask_read = call i64 @_ssdm_op_Read.ap_auto.i64(i64 %mask) ; [#uses=1 type=i64]
  %rw_read = call i32 @_ssdm_op_Read.ap_auto.i32(i32 %rw) ; [#uses=2 type=i32]
  %tmp = trunc i32 %rw_read to i2, !dbg !11409    ; [#uses=1 type=i2] [debug line = 60:2]
  %tmp_8 = icmp eq i2 %tmp, 0, !dbg !11409        ; [#uses=1 type=i1] [debug line = 60:2]
  br i1 %tmp_8, label %0, label %1, !dbg !11409   ; [debug line = 60:2]

; <label>:0                                       ; preds = %newFuncRoot
  %tmp_1 = trunc i32 %rw_read to i1, !dbg !11410  ; [#uses=1 type=i1] [debug line = 66:7]
  br i1 %tmp_1, label %2, label %._crit_edge, !dbg !11410 ; [debug line = 66:7]

; <label>:1                                       ; preds = %newFuncRoot
  call fastcc void @mem_read(i64* %in_V_data_V, i8* %in_V_keep_V, i8* %in_V_strb_V, i1* %in_V_user_V, i1* %in_V_last_V, i1* %in_V_id_V, i1* %in_V_dest_V), !dbg !11411 ; [debug line = 63:2]
  %tmp_2 = trunc i64 %mask_read to i32, !dbg !11412 ; [#uses=1 type=i32] [debug line = 64:3]
  call fastcc void @mem_write(i64* %out_V_data_V, i8* %out_V_keep_V, i8* %out_V_strb_V, i1* %out_V_user_V, i1* %out_V_last_V, i1* %out_V_id_V, i1* %out_V_dest_V, i32 %tmp_2, [256 x i64]* %test_init_arr_V), !dbg !11412 ; [debug line = 64:3]
  br label %.ret.exitStub, !dbg !11413            ; [debug line = 65:2]

; <label>:2                                       ; preds = %0
  call fastcc void @mem_read(i64* %in_V_data_V, i8* %in_V_keep_V, i8* %in_V_strb_V, i1* %in_V_user_V, i1* %in_V_last_V, i1* %in_V_id_V, i1* %in_V_dest_V), !dbg !11414 ; [debug line = 67:3]
  br label %._crit_edge, !dbg !11414              ; [debug line = 67:3]

._crit_edge:                                      ; preds = %2, %0
  br label %.ret.exitStub

.ret.exitStub:                                    ; preds = %._crit_edge, %1
  ret void
}

!opencl.kernels = !{!0, !7, !13, !19, !22, !24, !24, !27, !27, !33, !36, !42, !42, !27, !44, !27, !27, !27, !47, !47, !49, !49, !51, !54, !56, !58, !58, !27, !27, !60, !58, !58, !27, !27, !62, !27, !27, !27, !27, !27, !27, !27, !27, !27, !27, !27}
!hls.encrypted.func = !{}
!llvm.map.gv = !{!64}

!0 = metadata !{null, metadata !1, metadata !2, metadata !3, metadata !4, metadata !5, metadata !6}
!1 = metadata !{metadata !"kernel_arg_addr_space", i32 0}
!2 = metadata !{metadata !"kernel_arg_access_qual", metadata !"none"}
!3 = metadata !{metadata !"kernel_arg_type", metadata !"AXI_STREAM &"}
!4 = metadata !{metadata !"kernel_arg_type_qual", metadata !""}
!5 = metadata !{metadata !"kernel_arg_name", metadata !"in_stream"}
!6 = metadata !{metadata !"reqd_work_group_size", i32 1, i32 1, i32 1}
!7 = metadata !{null, metadata !8, metadata !9, metadata !10, metadata !11, metadata !12, metadata !6}
!8 = metadata !{metadata !"kernel_arg_addr_space", i32 0, i32 0, i32 1}
!9 = metadata !{metadata !"kernel_arg_access_qual", metadata !"none", metadata !"none", metadata !"none"}
!10 = metadata !{metadata !"kernel_arg_type", metadata !"AXI_STREAM &", metadata !"int", metadata !"data_t*"}
!11 = metadata !{metadata !"kernel_arg_type_qual", metadata !"", metadata !"", metadata !""}
!12 = metadata !{metadata !"kernel_arg_name", metadata !"out_stream", metadata !"mask", metadata !"test_init_arr"}
!13 = metadata !{null, metadata !14, metadata !15, metadata !16, metadata !17, metadata !18, metadata !6}
!14 = metadata !{metadata !"kernel_arg_addr_space", i32 0, i32 0, i32 0, i32 0, i32 1}
!15 = metadata !{metadata !"kernel_arg_access_qual", metadata !"none", metadata !"none", metadata !"none", metadata !"none", metadata !"none"}
!16 = metadata !{metadata !"kernel_arg_type", metadata !"AXI_STREAM &", metadata !"AXI_STREAM &", metadata !"int", metadata !"ulong", metadata !"data_t*"}
!17 = metadata !{metadata !"kernel_arg_type_qual", metadata !"", metadata !"", metadata !"", metadata !"", metadata !""}
!18 = metadata !{metadata !"kernel_arg_name", metadata !"out", metadata !"in", metadata !"rw", metadata !"mask", metadata !"test_init_arr"}
!19 = metadata !{null, metadata !1, metadata !2, metadata !20, metadata !4, metadata !21, metadata !6}
!20 = metadata !{metadata !"kernel_arg_type", metadata !"const struct ap_axiu<64, 1, 1, 1> &"}
!21 = metadata !{metadata !"kernel_arg_name", metadata !"wdata"}
!22 = metadata !{null, metadata !1, metadata !2, metadata !20, metadata !4, metadata !23, metadata !6}
!23 = metadata !{metadata !"kernel_arg_name", metadata !"din"}
!24 = metadata !{null, metadata !1, metadata !2, metadata !25, metadata !4, metadata !26, metadata !6}
!25 = metadata !{metadata !"kernel_arg_type", metadata !"const ap_int_base<65, true> &"}
!26 = metadata !{metadata !"kernel_arg_name", metadata !"op"}
!27 = metadata !{null, metadata !28, metadata !29, metadata !30, metadata !31, metadata !32, metadata !6}
!28 = metadata !{metadata !"kernel_arg_addr_space"}
!29 = metadata !{metadata !"kernel_arg_access_qual"}
!30 = metadata !{metadata !"kernel_arg_type"}
!31 = metadata !{metadata !"kernel_arg_type_qual"}
!32 = metadata !{metadata !"kernel_arg_name"}
!33 = metadata !{null, metadata !1, metadata !2, metadata !34, metadata !4, metadata !35, metadata !6}
!34 = metadata !{metadata !"kernel_arg_type", metadata !"const ap_uint<64> &"}
!35 = metadata !{metadata !"kernel_arg_name", metadata !"op2"}
!36 = metadata !{null, metadata !37, metadata !38, metadata !39, metadata !40, metadata !41, metadata !6}
!37 = metadata !{metadata !"kernel_arg_addr_space", i32 0, i32 0}
!38 = metadata !{metadata !"kernel_arg_access_qual", metadata !"none", metadata !"none"}
!39 = metadata !{metadata !"kernel_arg_type", metadata !"const ap_int_base<64, false> &", metadata !"int"}
!40 = metadata !{metadata !"kernel_arg_type_qual", metadata !"", metadata !""}
!41 = metadata !{metadata !"kernel_arg_name", metadata !"op", metadata !"i_op"}
!42 = metadata !{null, metadata !1, metadata !2, metadata !43, metadata !4, metadata !26, metadata !6}
!43 = metadata !{metadata !"kernel_arg_type", metadata !"int"}
!44 = metadata !{null, metadata !37, metadata !38, metadata !45, metadata !40, metadata !46, metadata !6}
!45 = metadata !{metadata !"kernel_arg_type", metadata !"const ap_int_base<64, false> &", metadata !"const ap_int_base<32, true> &"}
!46 = metadata !{metadata !"kernel_arg_name", metadata !"op", metadata !"op2"}
!47 = metadata !{null, metadata !1, metadata !2, metadata !48, metadata !4, metadata !26, metadata !6}
!48 = metadata !{metadata !"kernel_arg_type", metadata !"const ap_int_base<32, true> &"}
!49 = metadata !{null, metadata !1, metadata !2, metadata !50, metadata !4, metadata !26, metadata !6}
!50 = metadata !{metadata !"kernel_arg_type", metadata !"const ap_int_base<64, false> &"}
!51 = metadata !{null, metadata !1, metadata !2, metadata !52, metadata !4, metadata !53, metadata !6}
!52 = metadata !{metadata !"kernel_arg_type", metadata !"struct ap_axiu<64, 1, 1, 1> &"}
!53 = metadata !{metadata !"kernel_arg_name", metadata !"rdata"}
!54 = metadata !{null, metadata !1, metadata !2, metadata !52, metadata !4, metadata !55, metadata !6}
!55 = metadata !{metadata !"kernel_arg_name", metadata !"dout"}
!56 = metadata !{null, metadata !1, metadata !2, metadata !20, metadata !4, metadata !57, metadata !6}
!57 = metadata !{metadata !"kernel_arg_name", metadata !""}
!58 = metadata !{null, metadata !1, metadata !2, metadata !43, metadata !4, metadata !59, metadata !6}
!59 = metadata !{metadata !"kernel_arg_name", metadata !"val"}
!60 = metadata !{null, metadata !1, metadata !2, metadata !61, metadata !4, metadata !35, metadata !6}
!61 = metadata !{metadata !"kernel_arg_type", metadata !"const ap_uint<8> &"}
!62 = metadata !{null, metadata !1, metadata !2, metadata !63, metadata !4, metadata !35, metadata !6}
!63 = metadata !{metadata !"kernel_arg_type", metadata !"const ap_uint<1> &"}
!64 = metadata !{metadata !65, [0 x i32]* @llvm_global_ctors_0}
!65 = metadata !{metadata !66}
!66 = metadata !{i32 0, i32 31, metadata !67}
!67 = metadata !{metadata !68}
!68 = metadata !{metadata !"llvm.global_ctors.0", metadata !69, metadata !"", i32 0, i32 31}
!69 = metadata !{metadata !70}
!70 = metadata !{i32 0, i32 0, i32 1}
!71 = metadata !{i32 786689, metadata !72, metadata !"mask", metadata !73, i32 33554449, metadata !113, i32 0, i32 0} ; [ DW_TAG_arg_variable ]
!72 = metadata !{i32 786478, i32 0, metadata !73, metadata !"mem_write", metadata !"mem_write", metadata !"_Z9mem_writeRN3hls6streamI7ap_axiuILi64ELi1ELi1ELi1EEEEiP7ap_uintILi64EE", metadata !73, i32 17, metadata !74, i1 false, i1 true, i32 0, i32 0, null, i32 256, i1 false, null, null, null, metadata !104, i32 18} ; [ DW_TAG_subprogram ]
!73 = metadata !{i32 786473, metadata !"mem.cpp", metadata !"/home/juju/mem_test_rw_seperate/ip", null} ; [ DW_TAG_file_type ]
!74 = metadata !{i32 786453, i32 0, metadata !"", i32 0, i32 0, i64 0, i64 0, i64 0, i32 0, null, metadata !75, i32 0, i32 0} ; [ DW_TAG_subroutine_type ]
!75 = metadata !{null, metadata !76, metadata !113, metadata !10873}
!76 = metadata !{i32 786448, null, null, null, i32 0, i64 0, i64 0, i64 0, i32 0, metadata !77} ; [ DW_TAG_reference_type ]
!77 = metadata !{i32 786454, null, metadata !"AXI_STREAM", metadata !73, i32 29, i64 0, i64 0, i64 0, i32 0, metadata !78} ; [ DW_TAG_typedef ]
!78 = metadata !{i32 786434, metadata !79, metadata !"stream<ap_axiu<64, 1, 1, 1> >", metadata !80, i32 79, i64 128, i64 64, i32 0, i32 0, null, metadata !81, i32 0, null, metadata !10871} ; [ DW_TAG_class_type ]
!79 = metadata !{i32 786489, null, metadata !"hls", metadata !80, i32 69} ; [ DW_TAG_namespace ]
!80 = metadata !{i32 786473, metadata !"/opt/Xilinx_tools/Vivado/2017.4/common/technology/autopilot/hls_stream.h", metadata !"/home/juju/mem_test_rw_seperate/ip", null} ; [ DW_TAG_file_type ]
!81 = metadata !{metadata !82, metadata !10827, metadata !10831, metadata !10834, metadata !10839, metadata !10843, metadata !10847, metadata !10852, metadata !10856, metadata !10857, metadata !10858, metadata !10861, metadata !10864, metadata !10865, metadata !10868}
!82 = metadata !{i32 786445, metadata !78, metadata !"V", metadata !80, i32 163, i64 128, i64 64, i64 0, i32 0, metadata !83} ; [ DW_TAG_member ]
!83 = metadata !{i32 786434, null, metadata !"ap_axiu<64, 1, 1, 1>", metadata !84, i32 100, i64 128, i64 64, i32 0, i32 0, null, metadata !85, i32 0, null, metadata !10822} ; [ DW_TAG_class_type ]
!84 = metadata !{i32 786473, metadata !"/opt/Xilinx_tools/Vivado/2017.4/common/technology/autopilot/ap_axi_sdata.h", metadata !"/home/juju/mem_test_rw_seperate/ip", null} ; [ DW_TAG_file_type ]
!85 = metadata !{metadata !86, metadata !3002, metadata !8045, metadata !8046, metadata !10815, metadata !10816, metadata !10817, metadata !10818}
!86 = metadata !{i32 786445, metadata !83, metadata !"data", metadata !84, i32 101, i64 64, i64 64, i64 0, i32 0, metadata !87} ; [ DW_TAG_member ]
!87 = metadata !{i32 786434, null, metadata !"ap_uint<64>", metadata !88, i32 183, i64 64, i64 64, i32 0, i32 0, null, metadata !89, i32 0, null, metadata !3001} ; [ DW_TAG_class_type ]
!88 = metadata !{i32 786473, metadata !"/opt/Xilinx_tools/Vivado/2017.4/common/technology/autopilot/ap_int.h", metadata !"/home/juju/mem_test_rw_seperate/ip", null} ; [ DW_TAG_file_type ]
!89 = metadata !{metadata !90, metadata !2918, metadata !2922, metadata !2928, metadata !2934, metadata !2937, metadata !2940, metadata !2943, metadata !2946, metadata !2949, metadata !2952, metadata !2955, metadata !2958, metadata !2961, metadata !2964, metadata !2967, metadata !2970, metadata !2973, metadata !2976, metadata !2979, metadata !2982, metadata !2985, metadata !2989, metadata !2992, metadata !2996, metadata !2999, metadata !3000}
!90 = metadata !{i32 786460, metadata !87, null, metadata !88, i32 0, i64 0, i64 0, i64 0, i32 0, metadata !91} ; [ DW_TAG_inheritance ]
!91 = metadata !{i32 786434, null, metadata !"ap_int_base<64, false, true>", metadata !92, i32 1453, i64 64, i64 64, i32 0, i32 0, null, metadata !93, i32 0, null, metadata !2917} ; [ DW_TAG_class_type ]
!92 = metadata !{i32 786473, metadata !"/opt/Xilinx_tools/Vivado/2017.4/common/technology/autopilot/ap_int_syn.h", metadata !"/home/juju/mem_test_rw_seperate/ip", null} ; [ DW_TAG_file_type ]
!93 = metadata !{metadata !94, metadata !116, metadata !120, metadata !128, metadata !134, metadata !137, metadata !141, metadata !145, metadata !149, metadata !153, metadata !156, metadata !160, metadata !164, metadata !168, metadata !173, metadata !178, metadata !183, metadata !187, metadata !191, metadata !197, metadata !200, metadata !204, metadata !207, metadata !210, metadata !211, metadata !215, metadata !218, metadata !221, metadata !224, metadata !227, metadata !230, metadata !233, metadata !236, metadata !239, metadata !242, metadata !245, metadata !248, metadata !258, metadata !261, metadata !264, metadata !267, metadata !270, metadata !273, metadata !276, metadata !279, metadata !282, metadata !285, metadata !288, metadata !291, metadata !294, metadata !295, metadata !299, metadata !302, metadata !303, metadata !304, metadata !305, metadata !306, metadata !307, metadata !310, metadata !311, metadata !314, metadata !315, metadata !316, metadata !317, metadata !318, metadata !319, metadata !322, metadata !323, metadata !324, metadata !327, metadata !328, metadata !331, metadata !332, metadata !593, metadata !2846, metadata !2847, metadata !2850, metadata !2851, metadata !2890, metadata !2891, metadata !2892, metadata !2893, metadata !2896, metadata !2897, metadata !2898, metadata !2899, metadata !2900, metadata !2901, metadata !2902, metadata !2903, metadata !2904, metadata !2905, metadata !2906, metadata !2907, metadata !2910, metadata !2913, metadata !2916}
!94 = metadata !{i32 786460, metadata !91, null, metadata !92, i32 0, i64 0, i64 0, i64 0, i32 0, metadata !95} ; [ DW_TAG_inheritance ]
!95 = metadata !{i32 786434, null, metadata !"ssdm_int<64 + 1024 * 0, false>", metadata !96, i32 68, i64 64, i64 64, i32 0, i32 0, null, metadata !97, i32 0, null, metadata !111} ; [ DW_TAG_class_type ]
!96 = metadata !{i32 786473, metadata !"/opt/Xilinx_tools/Vivado/2017.4/common/technology/autopilot/etc/autopilot_dt.def", metadata !"/home/juju/mem_test_rw_seperate/ip", null} ; [ DW_TAG_file_type ]
!97 = metadata !{metadata !98, metadata !100, metadata !106}
!98 = metadata !{i32 786445, metadata !95, metadata !"V", metadata !96, i32 68, i64 64, i64 64, i64 0, i32 0, metadata !99} ; [ DW_TAG_member ]
!99 = metadata !{i32 786468, null, metadata !"uint64", null, i32 0, i64 64, i64 64, i64 0, i32 0, i32 7} ; [ DW_TAG_base_type ]
!100 = metadata !{i32 786478, i32 0, metadata !95, metadata !"ssdm_int", metadata !"ssdm_int", metadata !"", metadata !96, i32 68, metadata !101, i1 false, i1 false, i32 0, i32 0, null, i32 256, i1 false, null, null, i32 0, metadata !104, i32 68} ; [ DW_TAG_subprogram ]
!101 = metadata !{i32 786453, i32 0, metadata !"", i32 0, i32 0, i64 0, i64 0, i64 0, i32 0, null, metadata !102, i32 0, i32 0} ; [ DW_TAG_subroutine_type ]
!102 = metadata !{null, metadata !103}
!103 = metadata !{i32 786447, i32 0, metadata !"", i32 0, i32 0, i64 64, i64 64, i64 0, i32 64, metadata !95} ; [ DW_TAG_pointer_type ]
!104 = metadata !{metadata !105}
!105 = metadata !{i32 786468}                     ; [ DW_TAG_base_type ]
!106 = metadata !{i32 786478, i32 0, metadata !95, metadata !"ssdm_int", metadata !"ssdm_int", metadata !"", metadata !96, i32 68, metadata !107, i1 false, i1 false, i32 0, i32 0, null, i32 320, i1 false, null, null, i32 0, metadata !104, i32 68} ; [ DW_TAG_subprogram ]
!107 = metadata !{i32 786453, i32 0, metadata !"", i32 0, i32 0, i64 0, i64 0, i64 0, i32 0, null, metadata !108, i32 0, i32 0} ; [ DW_TAG_subroutine_type ]
!108 = metadata !{null, metadata !103, metadata !109}
!109 = metadata !{i32 786448, null, null, null, i32 0, i64 0, i64 0, i64 0, i32 0, metadata !110} ; [ DW_TAG_reference_type ]
!110 = metadata !{i32 786470, null, metadata !"", null, i32 0, i64 0, i64 0, i64 0, i32 0, metadata !95} ; [ DW_TAG_const_type ]
!111 = metadata !{metadata !112, metadata !114}
!112 = metadata !{i32 786480, null, metadata !"_AP_N", metadata !113, i64 64, null, i32 0, i32 0} ; [ DW_TAG_template_value_parameter ]
!113 = metadata !{i32 786468, null, metadata !"int", null, i32 0, i64 32, i64 32, i64 0, i32 0, i32 5} ; [ DW_TAG_base_type ]
!114 = metadata !{i32 786480, null, metadata !"_AP_S", metadata !115, i64 0, null, i32 0, i32 0} ; [ DW_TAG_template_value_parameter ]
!115 = metadata !{i32 786468, null, metadata !"bool", null, i32 0, i64 8, i64 8, i64 0, i32 0, i32 2} ; [ DW_TAG_base_type ]
!116 = metadata !{i32 786478, i32 0, metadata !91, metadata !"ap_int_base", metadata !"ap_int_base", metadata !"", metadata !92, i32 1494, metadata !117, i1 false, i1 false, i32 0, i32 0, null, i32 256, i1 false, null, null, i32 0, metadata !104, i32 1494} ; [ DW_TAG_subprogram ]
!117 = metadata !{i32 786453, i32 0, metadata !"", i32 0, i32 0, i64 0, i64 0, i64 0, i32 0, null, metadata !118, i32 0, i32 0} ; [ DW_TAG_subroutine_type ]
!118 = metadata !{null, metadata !119}
!119 = metadata !{i32 786447, i32 0, metadata !"", i32 0, i32 0, i64 64, i64 64, i64 0, i32 64, metadata !91} ; [ DW_TAG_pointer_type ]
!120 = metadata !{i32 786478, i32 0, metadata !91, metadata !"ap_int_base<64, false>", metadata !"ap_int_base<64, false>", metadata !"", metadata !92, i32 1506, metadata !121, i1 false, i1 false, i32 0, i32 0, null, i32 256, i1 false, null, metadata !125, i32 0, metadata !104, i32 1506} ; [ DW_TAG_subprogram ]
!121 = metadata !{i32 786453, i32 0, metadata !"", i32 0, i32 0, i64 0, i64 0, i64 0, i32 0, null, metadata !122, i32 0, i32 0} ; [ DW_TAG_subroutine_type ]
!122 = metadata !{null, metadata !119, metadata !123}
!123 = metadata !{i32 786448, null, null, null, i32 0, i64 0, i64 0, i64 0, i32 0, metadata !124} ; [ DW_TAG_reference_type ]
!124 = metadata !{i32 786470, null, metadata !"", null, i32 0, i64 0, i64 0, i64 0, i32 0, metadata !91} ; [ DW_TAG_const_type ]
!125 = metadata !{metadata !126, metadata !127}
!126 = metadata !{i32 786480, null, metadata !"_AP_W2", metadata !113, i64 64, null, i32 0, i32 0} ; [ DW_TAG_template_value_parameter ]
!127 = metadata !{i32 786480, null, metadata !"_AP_S2", metadata !115, i64 0, null, i32 0, i32 0} ; [ DW_TAG_template_value_parameter ]
!128 = metadata !{i32 786478, i32 0, metadata !91, metadata !"ap_int_base<64, false>", metadata !"ap_int_base<64, false>", metadata !"", metadata !92, i32 1509, metadata !129, i1 false, i1 false, i32 0, i32 0, null, i32 256, i1 false, null, metadata !125, i32 0, metadata !104, i32 1509} ; [ DW_TAG_subprogram ]
!129 = metadata !{i32 786453, i32 0, metadata !"", i32 0, i32 0, i64 0, i64 0, i64 0, i32 0, null, metadata !130, i32 0, i32 0} ; [ DW_TAG_subroutine_type ]
!130 = metadata !{null, metadata !119, metadata !131}
!131 = metadata !{i32 786448, null, null, null, i32 0, i64 0, i64 0, i64 0, i32 0, metadata !132} ; [ DW_TAG_reference_type ]
!132 = metadata !{i32 786470, null, metadata !"", null, i32 0, i64 0, i64 0, i64 0, i32 0, metadata !133} ; [ DW_TAG_const_type ]
!133 = metadata !{i32 786485, null, metadata !"", null, i32 0, i64 0, i64 0, i64 0, i32 0, metadata !91} ; [ DW_TAG_volatile_type ]
!134 = metadata !{i32 786478, i32 0, metadata !91, metadata !"ap_int_base", metadata !"ap_int_base", metadata !"", metadata !92, i32 1516, metadata !135, i1 false, i1 false, i32 0, i32 0, null, i32 384, i1 false, null, null, i32 0, metadata !104, i32 1516} ; [ DW_TAG_subprogram ]
!135 = metadata !{i32 786453, i32 0, metadata !"", i32 0, i32 0, i64 0, i64 0, i64 0, i32 0, null, metadata !136, i32 0, i32 0} ; [ DW_TAG_subroutine_type ]
!136 = metadata !{null, metadata !119, metadata !115}
!137 = metadata !{i32 786478, i32 0, metadata !91, metadata !"ap_int_base", metadata !"ap_int_base", metadata !"", metadata !92, i32 1517, metadata !138, i1 false, i1 false, i32 0, i32 0, null, i32 384, i1 false, null, null, i32 0, metadata !104, i32 1517} ; [ DW_TAG_subprogram ]
!138 = metadata !{i32 786453, i32 0, metadata !"", i32 0, i32 0, i64 0, i64 0, i64 0, i32 0, null, metadata !139, i32 0, i32 0} ; [ DW_TAG_subroutine_type ]
!139 = metadata !{null, metadata !119, metadata !140}
!140 = metadata !{i32 786468, null, metadata !"signed char", null, i32 0, i64 8, i64 8, i64 0, i32 0, i32 6} ; [ DW_TAG_base_type ]
!141 = metadata !{i32 786478, i32 0, metadata !91, metadata !"ap_int_base", metadata !"ap_int_base", metadata !"", metadata !92, i32 1518, metadata !142, i1 false, i1 false, i32 0, i32 0, null, i32 384, i1 false, null, null, i32 0, metadata !104, i32 1518} ; [ DW_TAG_subprogram ]
!142 = metadata !{i32 786453, i32 0, metadata !"", i32 0, i32 0, i64 0, i64 0, i64 0, i32 0, null, metadata !143, i32 0, i32 0} ; [ DW_TAG_subroutine_type ]
!143 = metadata !{null, metadata !119, metadata !144}
!144 = metadata !{i32 786468, null, metadata !"unsigned char", null, i32 0, i64 8, i64 8, i64 0, i32 0, i32 8} ; [ DW_TAG_base_type ]
!145 = metadata !{i32 786478, i32 0, metadata !91, metadata !"ap_int_base", metadata !"ap_int_base", metadata !"", metadata !92, i32 1519, metadata !146, i1 false, i1 false, i32 0, i32 0, null, i32 384, i1 false, null, null, i32 0, metadata !104, i32 1519} ; [ DW_TAG_subprogram ]
!146 = metadata !{i32 786453, i32 0, metadata !"", i32 0, i32 0, i64 0, i64 0, i64 0, i32 0, null, metadata !147, i32 0, i32 0} ; [ DW_TAG_subroutine_type ]
!147 = metadata !{null, metadata !119, metadata !148}
!148 = metadata !{i32 786468, null, metadata !"short", null, i32 0, i64 16, i64 16, i64 0, i32 0, i32 5} ; [ DW_TAG_base_type ]
!149 = metadata !{i32 786478, i32 0, metadata !91, metadata !"ap_int_base", metadata !"ap_int_base", metadata !"", metadata !92, i32 1520, metadata !150, i1 false, i1 false, i32 0, i32 0, null, i32 384, i1 false, null, null, i32 0, metadata !104, i32 1520} ; [ DW_TAG_subprogram ]
!150 = metadata !{i32 786453, i32 0, metadata !"", i32 0, i32 0, i64 0, i64 0, i64 0, i32 0, null, metadata !151, i32 0, i32 0} ; [ DW_TAG_subroutine_type ]
!151 = metadata !{null, metadata !119, metadata !152}
!152 = metadata !{i32 786468, null, metadata !"unsigned short", null, i32 0, i64 16, i64 16, i64 0, i32 0, i32 7} ; [ DW_TAG_base_type ]
!153 = metadata !{i32 786478, i32 0, metadata !91, metadata !"ap_int_base", metadata !"ap_int_base", metadata !"", metadata !92, i32 1521, metadata !154, i1 false, i1 false, i32 0, i32 0, null, i32 384, i1 false, null, null, i32 0, metadata !104, i32 1521} ; [ DW_TAG_subprogram ]
!154 = metadata !{i32 786453, i32 0, metadata !"", i32 0, i32 0, i64 0, i64 0, i64 0, i32 0, null, metadata !155, i32 0, i32 0} ; [ DW_TAG_subroutine_type ]
!155 = metadata !{null, metadata !119, metadata !113}
!156 = metadata !{i32 786478, i32 0, metadata !91, metadata !"ap_int_base", metadata !"ap_int_base", metadata !"", metadata !92, i32 1522, metadata !157, i1 false, i1 false, i32 0, i32 0, null, i32 384, i1 false, null, null, i32 0, metadata !104, i32 1522} ; [ DW_TAG_subprogram ]
!157 = metadata !{i32 786453, i32 0, metadata !"", i32 0, i32 0, i64 0, i64 0, i64 0, i32 0, null, metadata !158, i32 0, i32 0} ; [ DW_TAG_subroutine_type ]
!158 = metadata !{null, metadata !119, metadata !159}
!159 = metadata !{i32 786468, null, metadata !"unsigned int", null, i32 0, i64 32, i64 32, i64 0, i32 0, i32 7} ; [ DW_TAG_base_type ]
!160 = metadata !{i32 786478, i32 0, metadata !91, metadata !"ap_int_base", metadata !"ap_int_base", metadata !"", metadata !92, i32 1523, metadata !161, i1 false, i1 false, i32 0, i32 0, null, i32 384, i1 false, null, null, i32 0, metadata !104, i32 1523} ; [ DW_TAG_subprogram ]
!161 = metadata !{i32 786453, i32 0, metadata !"", i32 0, i32 0, i64 0, i64 0, i64 0, i32 0, null, metadata !162, i32 0, i32 0} ; [ DW_TAG_subroutine_type ]
!162 = metadata !{null, metadata !119, metadata !163}
!163 = metadata !{i32 786468, null, metadata !"long int", null, i32 0, i64 64, i64 64, i64 0, i32 0, i32 5} ; [ DW_TAG_base_type ]
!164 = metadata !{i32 786478, i32 0, metadata !91, metadata !"ap_int_base", metadata !"ap_int_base", metadata !"", metadata !92, i32 1524, metadata !165, i1 false, i1 false, i32 0, i32 0, null, i32 384, i1 false, null, null, i32 0, metadata !104, i32 1524} ; [ DW_TAG_subprogram ]
!165 = metadata !{i32 786453, i32 0, metadata !"", i32 0, i32 0, i64 0, i64 0, i64 0, i32 0, null, metadata !166, i32 0, i32 0} ; [ DW_TAG_subroutine_type ]
!166 = metadata !{null, metadata !119, metadata !167}
!167 = metadata !{i32 786468, null, metadata !"long unsigned int", null, i32 0, i64 64, i64 64, i64 0, i32 0, i32 7} ; [ DW_TAG_base_type ]
!168 = metadata !{i32 786478, i32 0, metadata !91, metadata !"ap_int_base", metadata !"ap_int_base", metadata !"", metadata !92, i32 1525, metadata !169, i1 false, i1 false, i32 0, i32 0, null, i32 384, i1 false, null, null, i32 0, metadata !104, i32 1525} ; [ DW_TAG_subprogram ]
!169 = metadata !{i32 786453, i32 0, metadata !"", i32 0, i32 0, i64 0, i64 0, i64 0, i32 0, null, metadata !170, i32 0, i32 0} ; [ DW_TAG_subroutine_type ]
!170 = metadata !{null, metadata !119, metadata !171}
!171 = metadata !{i32 786454, null, metadata !"ap_slong", metadata !92, i32 112, i64 0, i64 0, i64 0, i32 0, metadata !172} ; [ DW_TAG_typedef ]
!172 = metadata !{i32 786468, null, metadata !"long long int", null, i32 0, i64 64, i64 64, i64 0, i32 0, i32 5} ; [ DW_TAG_base_type ]
!173 = metadata !{i32 786478, i32 0, metadata !91, metadata !"ap_int_base", metadata !"ap_int_base", metadata !"", metadata !92, i32 1526, metadata !174, i1 false, i1 false, i32 0, i32 0, null, i32 384, i1 false, null, null, i32 0, metadata !104, i32 1526} ; [ DW_TAG_subprogram ]
!174 = metadata !{i32 786453, i32 0, metadata !"", i32 0, i32 0, i64 0, i64 0, i64 0, i32 0, null, metadata !175, i32 0, i32 0} ; [ DW_TAG_subroutine_type ]
!175 = metadata !{null, metadata !119, metadata !176}
!176 = metadata !{i32 786454, null, metadata !"ap_ulong", metadata !92, i32 111, i64 0, i64 0, i64 0, i32 0, metadata !177} ; [ DW_TAG_typedef ]
!177 = metadata !{i32 786468, null, metadata !"long long unsigned int", null, i32 0, i64 64, i64 64, i64 0, i32 0, i32 7} ; [ DW_TAG_base_type ]
!178 = metadata !{i32 786478, i32 0, metadata !91, metadata !"ap_int_base", metadata !"ap_int_base", metadata !"", metadata !92, i32 1527, metadata !179, i1 false, i1 false, i32 0, i32 0, null, i32 384, i1 false, null, null, i32 0, metadata !104, i32 1527} ; [ DW_TAG_subprogram ]
!179 = metadata !{i32 786453, i32 0, metadata !"", i32 0, i32 0, i64 0, i64 0, i64 0, i32 0, null, metadata !180, i32 0, i32 0} ; [ DW_TAG_subroutine_type ]
!180 = metadata !{null, metadata !119, metadata !181}
!181 = metadata !{i32 786454, null, metadata !"half", metadata !92, i32 54, i64 0, i64 0, i64 0, i32 0, metadata !182} ; [ DW_TAG_typedef ]
!182 = metadata !{i32 786468, null, metadata !"half", null, i32 0, i64 16, i64 16, i64 0, i32 0, i32 4} ; [ DW_TAG_base_type ]
!183 = metadata !{i32 786478, i32 0, metadata !91, metadata !"ap_int_base", metadata !"ap_int_base", metadata !"", metadata !92, i32 1528, metadata !184, i1 false, i1 false, i32 0, i32 0, null, i32 384, i1 false, null, null, i32 0, metadata !104, i32 1528} ; [ DW_TAG_subprogram ]
!184 = metadata !{i32 786453, i32 0, metadata !"", i32 0, i32 0, i64 0, i64 0, i64 0, i32 0, null, metadata !185, i32 0, i32 0} ; [ DW_TAG_subroutine_type ]
!185 = metadata !{null, metadata !119, metadata !186}
!186 = metadata !{i32 786468, null, metadata !"float", null, i32 0, i64 32, i64 32, i64 0, i32 0, i32 4} ; [ DW_TAG_base_type ]
!187 = metadata !{i32 786478, i32 0, metadata !91, metadata !"ap_int_base", metadata !"ap_int_base", metadata !"", metadata !92, i32 1529, metadata !188, i1 false, i1 false, i32 0, i32 0, null, i32 384, i1 false, null, null, i32 0, metadata !104, i32 1529} ; [ DW_TAG_subprogram ]
!188 = metadata !{i32 786453, i32 0, metadata !"", i32 0, i32 0, i64 0, i64 0, i64 0, i32 0, null, metadata !189, i32 0, i32 0} ; [ DW_TAG_subroutine_type ]
!189 = metadata !{null, metadata !119, metadata !190}
!190 = metadata !{i32 786468, null, metadata !"double", null, i32 0, i64 64, i64 64, i64 0, i32 0, i32 4} ; [ DW_TAG_base_type ]
!191 = metadata !{i32 786478, i32 0, metadata !91, metadata !"ap_int_base", metadata !"ap_int_base", metadata !"", metadata !92, i32 1556, metadata !192, i1 false, i1 false, i32 0, i32 0, null, i32 256, i1 false, null, null, i32 0, metadata !104, i32 1556} ; [ DW_TAG_subprogram ]
!192 = metadata !{i32 786453, i32 0, metadata !"", i32 0, i32 0, i64 0, i64 0, i64 0, i32 0, null, metadata !193, i32 0, i32 0} ; [ DW_TAG_subroutine_type ]
!193 = metadata !{null, metadata !119, metadata !194}
!194 = metadata !{i32 786447, null, metadata !"", null, i32 0, i64 64, i64 64, i64 0, i32 0, metadata !195} ; [ DW_TAG_pointer_type ]
!195 = metadata !{i32 786470, null, metadata !"", null, i32 0, i64 0, i64 0, i64 0, i32 0, metadata !196} ; [ DW_TAG_const_type ]
!196 = metadata !{i32 786468, null, metadata !"char", null, i32 0, i64 8, i64 8, i64 0, i32 0, i32 6} ; [ DW_TAG_base_type ]
!197 = metadata !{i32 786478, i32 0, metadata !91, metadata !"ap_int_base", metadata !"ap_int_base", metadata !"", metadata !92, i32 1563, metadata !198, i1 false, i1 false, i32 0, i32 0, null, i32 256, i1 false, null, null, i32 0, metadata !104, i32 1563} ; [ DW_TAG_subprogram ]
!198 = metadata !{i32 786453, i32 0, metadata !"", i32 0, i32 0, i64 0, i64 0, i64 0, i32 0, null, metadata !199, i32 0, i32 0} ; [ DW_TAG_subroutine_type ]
!199 = metadata !{null, metadata !119, metadata !194, metadata !140}
!200 = metadata !{i32 786478, i32 0, metadata !91, metadata !"read", metadata !"read", metadata !"_ZNV11ap_int_baseILi64ELb0ELb1EE4readEv", metadata !92, i32 1584, metadata !201, i1 false, i1 false, i32 0, i32 0, null, i32 256, i1 false, null, null, i32 0, metadata !104, i32 1584} ; [ DW_TAG_subprogram ]
!201 = metadata !{i32 786453, i32 0, metadata !"", i32 0, i32 0, i64 0, i64 0, i64 0, i32 0, null, metadata !202, i32 0, i32 0} ; [ DW_TAG_subroutine_type ]
!202 = metadata !{metadata !91, metadata !203}
!203 = metadata !{i32 786447, i32 0, metadata !"", i32 0, i32 0, i64 64, i64 64, i64 0, i32 64, metadata !133} ; [ DW_TAG_pointer_type ]
!204 = metadata !{i32 786478, i32 0, metadata !91, metadata !"write", metadata !"write", metadata !"_ZNV11ap_int_baseILi64ELb0ELb1EE5writeERKS0_", metadata !92, i32 1590, metadata !205, i1 false, i1 false, i32 0, i32 0, null, i32 256, i1 false, null, null, i32 0, metadata !104, i32 1590} ; [ DW_TAG_subprogram ]
!205 = metadata !{i32 786453, i32 0, metadata !"", i32 0, i32 0, i64 0, i64 0, i64 0, i32 0, null, metadata !206, i32 0, i32 0} ; [ DW_TAG_subroutine_type ]
!206 = metadata !{null, metadata !203, metadata !123}
!207 = metadata !{i32 786478, i32 0, metadata !91, metadata !"operator=", metadata !"operator=", metadata !"_ZNV11ap_int_baseILi64ELb0ELb1EEaSERVKS0_", metadata !92, i32 1602, metadata !208, i1 false, i1 false, i32 0, i32 0, null, i32 256, i1 false, null, null, i32 0, metadata !104, i32 1602} ; [ DW_TAG_subprogram ]
!208 = metadata !{i32 786453, i32 0, metadata !"", i32 0, i32 0, i64 0, i64 0, i64 0, i32 0, null, metadata !209, i32 0, i32 0} ; [ DW_TAG_subroutine_type ]
!209 = metadata !{null, metadata !203, metadata !131}
!210 = metadata !{i32 786478, i32 0, metadata !91, metadata !"operator=", metadata !"operator=", metadata !"_ZNV11ap_int_baseILi64ELb0ELb1EEaSERKS0_", metadata !92, i32 1611, metadata !205, i1 false, i1 false, i32 0, i32 0, null, i32 256, i1 false, null, null, i32 0, metadata !104, i32 1611} ; [ DW_TAG_subprogram ]
!211 = metadata !{i32 786478, i32 0, metadata !91, metadata !"operator=", metadata !"operator=", metadata !"_ZN11ap_int_baseILi64ELb0ELb1EEaSERVKS0_", metadata !92, i32 1634, metadata !212, i1 false, i1 false, i32 0, i32 0, null, i32 256, i1 false, null, null, i32 0, metadata !104, i32 1634} ; [ DW_TAG_subprogram ]
!212 = metadata !{i32 786453, i32 0, metadata !"", i32 0, i32 0, i64 0, i64 0, i64 0, i32 0, null, metadata !213, i32 0, i32 0} ; [ DW_TAG_subroutine_type ]
!213 = metadata !{metadata !214, metadata !119, metadata !131}
!214 = metadata !{i32 786448, null, null, null, i32 0, i64 0, i64 0, i64 0, i32 0, metadata !91} ; [ DW_TAG_reference_type ]
!215 = metadata !{i32 786478, i32 0, metadata !91, metadata !"operator=", metadata !"operator=", metadata !"_ZN11ap_int_baseILi64ELb0ELb1EEaSERKS0_", metadata !92, i32 1639, metadata !216, i1 false, i1 false, i32 0, i32 0, null, i32 256, i1 false, null, null, i32 0, metadata !104, i32 1639} ; [ DW_TAG_subprogram ]
!216 = metadata !{i32 786453, i32 0, metadata !"", i32 0, i32 0, i64 0, i64 0, i64 0, i32 0, null, metadata !217, i32 0, i32 0} ; [ DW_TAG_subroutine_type ]
!217 = metadata !{metadata !214, metadata !119, metadata !123}
!218 = metadata !{i32 786478, i32 0, metadata !91, metadata !"operator=", metadata !"operator=", metadata !"_ZN11ap_int_baseILi64ELb0ELb1EEaSEPKc", metadata !92, i32 1643, metadata !219, i1 false, i1 false, i32 0, i32 0, null, i32 256, i1 false, null, null, i32 0, metadata !104, i32 1643} ; [ DW_TAG_subprogram ]
!219 = metadata !{i32 786453, i32 0, metadata !"", i32 0, i32 0, i64 0, i64 0, i64 0, i32 0, null, metadata !220, i32 0, i32 0} ; [ DW_TAG_subroutine_type ]
!220 = metadata !{metadata !214, metadata !119, metadata !194}
!221 = metadata !{i32 786478, i32 0, metadata !91, metadata !"set", metadata !"set", metadata !"_ZN11ap_int_baseILi64ELb0ELb1EE3setEPKca", metadata !92, i32 1651, metadata !222, i1 false, i1 false, i32 0, i32 0, null, i32 256, i1 false, null, null, i32 0, metadata !104, i32 1651} ; [ DW_TAG_subprogram ]
!222 = metadata !{i32 786453, i32 0, metadata !"", i32 0, i32 0, i64 0, i64 0, i64 0, i32 0, null, metadata !223, i32 0, i32 0} ; [ DW_TAG_subroutine_type ]
!223 = metadata !{metadata !214, metadata !119, metadata !194, metadata !140}
!224 = metadata !{i32 786478, i32 0, metadata !91, metadata !"operator=", metadata !"operator=", metadata !"_ZN11ap_int_baseILi64ELb0ELb1EEaSEa", metadata !92, i32 1665, metadata !225, i1 false, i1 false, i32 0, i32 0, null, i32 256, i1 false, null, null, i32 0, metadata !104, i32 1665} ; [ DW_TAG_subprogram ]
!225 = metadata !{i32 786453, i32 0, metadata !"", i32 0, i32 0, i64 0, i64 0, i64 0, i32 0, null, metadata !226, i32 0, i32 0} ; [ DW_TAG_subroutine_type ]
!226 = metadata !{metadata !214, metadata !119, metadata !140}
!227 = metadata !{i32 786478, i32 0, metadata !91, metadata !"operator=", metadata !"operator=", metadata !"_ZN11ap_int_baseILi64ELb0ELb1EEaSEh", metadata !92, i32 1666, metadata !228, i1 false, i1 false, i32 0, i32 0, null, i32 256, i1 false, null, null, i32 0, metadata !104, i32 1666} ; [ DW_TAG_subprogram ]
!228 = metadata !{i32 786453, i32 0, metadata !"", i32 0, i32 0, i64 0, i64 0, i64 0, i32 0, null, metadata !229, i32 0, i32 0} ; [ DW_TAG_subroutine_type ]
!229 = metadata !{metadata !214, metadata !119, metadata !144}
!230 = metadata !{i32 786478, i32 0, metadata !91, metadata !"operator=", metadata !"operator=", metadata !"_ZN11ap_int_baseILi64ELb0ELb1EEaSEs", metadata !92, i32 1667, metadata !231, i1 false, i1 false, i32 0, i32 0, null, i32 256, i1 false, null, null, i32 0, metadata !104, i32 1667} ; [ DW_TAG_subprogram ]
!231 = metadata !{i32 786453, i32 0, metadata !"", i32 0, i32 0, i64 0, i64 0, i64 0, i32 0, null, metadata !232, i32 0, i32 0} ; [ DW_TAG_subroutine_type ]
!232 = metadata !{metadata !214, metadata !119, metadata !148}
!233 = metadata !{i32 786478, i32 0, metadata !91, metadata !"operator=", metadata !"operator=", metadata !"_ZN11ap_int_baseILi64ELb0ELb1EEaSEt", metadata !92, i32 1668, metadata !234, i1 false, i1 false, i32 0, i32 0, null, i32 256, i1 false, null, null, i32 0, metadata !104, i32 1668} ; [ DW_TAG_subprogram ]
!234 = metadata !{i32 786453, i32 0, metadata !"", i32 0, i32 0, i64 0, i64 0, i64 0, i32 0, null, metadata !235, i32 0, i32 0} ; [ DW_TAG_subroutine_type ]
!235 = metadata !{metadata !214, metadata !119, metadata !152}
!236 = metadata !{i32 786478, i32 0, metadata !91, metadata !"operator=", metadata !"operator=", metadata !"_ZN11ap_int_baseILi64ELb0ELb1EEaSEi", metadata !92, i32 1669, metadata !237, i1 false, i1 false, i32 0, i32 0, null, i32 256, i1 false, null, null, i32 0, metadata !104, i32 1669} ; [ DW_TAG_subprogram ]
!237 = metadata !{i32 786453, i32 0, metadata !"", i32 0, i32 0, i64 0, i64 0, i64 0, i32 0, null, metadata !238, i32 0, i32 0} ; [ DW_TAG_subroutine_type ]
!238 = metadata !{metadata !214, metadata !119, metadata !113}
!239 = metadata !{i32 786478, i32 0, metadata !91, metadata !"operator=", metadata !"operator=", metadata !"_ZN11ap_int_baseILi64ELb0ELb1EEaSEj", metadata !92, i32 1670, metadata !240, i1 false, i1 false, i32 0, i32 0, null, i32 256, i1 false, null, null, i32 0, metadata !104, i32 1670} ; [ DW_TAG_subprogram ]
!240 = metadata !{i32 786453, i32 0, metadata !"", i32 0, i32 0, i64 0, i64 0, i64 0, i32 0, null, metadata !241, i32 0, i32 0} ; [ DW_TAG_subroutine_type ]
!241 = metadata !{metadata !214, metadata !119, metadata !159}
!242 = metadata !{i32 786478, i32 0, metadata !91, metadata !"operator=", metadata !"operator=", metadata !"_ZN11ap_int_baseILi64ELb0ELb1EEaSEx", metadata !92, i32 1671, metadata !243, i1 false, i1 false, i32 0, i32 0, null, i32 256, i1 false, null, null, i32 0, metadata !104, i32 1671} ; [ DW_TAG_subprogram ]
!243 = metadata !{i32 786453, i32 0, metadata !"", i32 0, i32 0, i64 0, i64 0, i64 0, i32 0, null, metadata !244, i32 0, i32 0} ; [ DW_TAG_subroutine_type ]
!244 = metadata !{metadata !214, metadata !119, metadata !171}
!245 = metadata !{i32 786478, i32 0, metadata !91, metadata !"operator=", metadata !"operator=", metadata !"_ZN11ap_int_baseILi64ELb0ELb1EEaSEy", metadata !92, i32 1672, metadata !246, i1 false, i1 false, i32 0, i32 0, null, i32 256, i1 false, null, null, i32 0, metadata !104, i32 1672} ; [ DW_TAG_subprogram ]
!246 = metadata !{i32 786453, i32 0, metadata !"", i32 0, i32 0, i64 0, i64 0, i64 0, i32 0, null, metadata !247, i32 0, i32 0} ; [ DW_TAG_subroutine_type ]
!247 = metadata !{metadata !214, metadata !119, metadata !176}
!248 = metadata !{i32 786478, i32 0, metadata !91, metadata !"operator unsigned long long", metadata !"operator unsigned long long", metadata !"_ZNK11ap_int_baseILi64ELb0ELb1EEcvyEv", metadata !92, i32 1710, metadata !249, i1 false, i1 false, i32 0, i32 0, null, i32 256, i1 false, null, null, i32 0, metadata !104, i32 1710} ; [ DW_TAG_subprogram ]
!249 = metadata !{i32 786453, i32 0, metadata !"", i32 0, i32 0, i64 0, i64 0, i64 0, i32 0, null, metadata !250, i32 0, i32 0} ; [ DW_TAG_subroutine_type ]
!250 = metadata !{metadata !251, metadata !257}
!251 = metadata !{i32 786454, metadata !91, metadata !"RetType", metadata !92, i32 1458, i64 0, i64 0, i64 0, i32 0, metadata !252} ; [ DW_TAG_typedef ]
!252 = metadata !{i32 786454, metadata !253, metadata !"Type", metadata !92, i32 1419, i64 0, i64 0, i64 0, i32 0, metadata !176} ; [ DW_TAG_typedef ]
!253 = metadata !{i32 786434, null, metadata !"retval<8, false>", metadata !92, i32 1418, i64 8, i64 8, i32 0, i32 0, null, metadata !254, i32 0, null, metadata !255} ; [ DW_TAG_class_type ]
!254 = metadata !{i32 0}
!255 = metadata !{metadata !256, metadata !114}
!256 = metadata !{i32 786480, null, metadata !"_AP_N", metadata !113, i64 8, null, i32 0, i32 0} ; [ DW_TAG_template_value_parameter ]
!257 = metadata !{i32 786447, i32 0, metadata !"", i32 0, i32 0, i64 64, i64 64, i64 0, i32 64, metadata !124} ; [ DW_TAG_pointer_type ]
!258 = metadata !{i32 786478, i32 0, metadata !91, metadata !"to_bool", metadata !"to_bool", metadata !"_ZNK11ap_int_baseILi64ELb0ELb1EE7to_boolEv", metadata !92, i32 1716, metadata !259, i1 false, i1 false, i32 0, i32 0, null, i32 256, i1 false, null, null, i32 0, metadata !104, i32 1716} ; [ DW_TAG_subprogram ]
!259 = metadata !{i32 786453, i32 0, metadata !"", i32 0, i32 0, i64 0, i64 0, i64 0, i32 0, null, metadata !260, i32 0, i32 0} ; [ DW_TAG_subroutine_type ]
!260 = metadata !{metadata !115, metadata !257}
!261 = metadata !{i32 786478, i32 0, metadata !91, metadata !"to_uchar", metadata !"to_uchar", metadata !"_ZNK11ap_int_baseILi64ELb0ELb1EE8to_ucharEv", metadata !92, i32 1717, metadata !262, i1 false, i1 false, i32 0, i32 0, null, i32 256, i1 false, null, null, i32 0, metadata !104, i32 1717} ; [ DW_TAG_subprogram ]
!262 = metadata !{i32 786453, i32 0, metadata !"", i32 0, i32 0, i64 0, i64 0, i64 0, i32 0, null, metadata !263, i32 0, i32 0} ; [ DW_TAG_subroutine_type ]
!263 = metadata !{metadata !144, metadata !257}
!264 = metadata !{i32 786478, i32 0, metadata !91, metadata !"to_char", metadata !"to_char", metadata !"_ZNK11ap_int_baseILi64ELb0ELb1EE7to_charEv", metadata !92, i32 1718, metadata !265, i1 false, i1 false, i32 0, i32 0, null, i32 256, i1 false, null, null, i32 0, metadata !104, i32 1718} ; [ DW_TAG_subprogram ]
!265 = metadata !{i32 786453, i32 0, metadata !"", i32 0, i32 0, i64 0, i64 0, i64 0, i32 0, null, metadata !266, i32 0, i32 0} ; [ DW_TAG_subroutine_type ]
!266 = metadata !{metadata !140, metadata !257}
!267 = metadata !{i32 786478, i32 0, metadata !91, metadata !"to_ushort", metadata !"to_ushort", metadata !"_ZNK11ap_int_baseILi64ELb0ELb1EE9to_ushortEv", metadata !92, i32 1719, metadata !268, i1 false, i1 false, i32 0, i32 0, null, i32 256, i1 false, null, null, i32 0, metadata !104, i32 1719} ; [ DW_TAG_subprogram ]
!268 = metadata !{i32 786453, i32 0, metadata !"", i32 0, i32 0, i64 0, i64 0, i64 0, i32 0, null, metadata !269, i32 0, i32 0} ; [ DW_TAG_subroutine_type ]
!269 = metadata !{metadata !152, metadata !257}
!270 = metadata !{i32 786478, i32 0, metadata !91, metadata !"to_short", metadata !"to_short", metadata !"_ZNK11ap_int_baseILi64ELb0ELb1EE8to_shortEv", metadata !92, i32 1720, metadata !271, i1 false, i1 false, i32 0, i32 0, null, i32 256, i1 false, null, null, i32 0, metadata !104, i32 1720} ; [ DW_TAG_subprogram ]
!271 = metadata !{i32 786453, i32 0, metadata !"", i32 0, i32 0, i64 0, i64 0, i64 0, i32 0, null, metadata !272, i32 0, i32 0} ; [ DW_TAG_subroutine_type ]
!272 = metadata !{metadata !148, metadata !257}
!273 = metadata !{i32 786478, i32 0, metadata !91, metadata !"to_int", metadata !"to_int", metadata !"_ZNK11ap_int_baseILi64ELb0ELb1EE6to_intEv", metadata !92, i32 1721, metadata !274, i1 false, i1 false, i32 0, i32 0, null, i32 256, i1 false, null, null, i32 0, metadata !104, i32 1721} ; [ DW_TAG_subprogram ]
!274 = metadata !{i32 786453, i32 0, metadata !"", i32 0, i32 0, i64 0, i64 0, i64 0, i32 0, null, metadata !275, i32 0, i32 0} ; [ DW_TAG_subroutine_type ]
!275 = metadata !{metadata !113, metadata !257}
!276 = metadata !{i32 786478, i32 0, metadata !91, metadata !"to_uint", metadata !"to_uint", metadata !"_ZNK11ap_int_baseILi64ELb0ELb1EE7to_uintEv", metadata !92, i32 1722, metadata !277, i1 false, i1 false, i32 0, i32 0, null, i32 256, i1 false, null, null, i32 0, metadata !104, i32 1722} ; [ DW_TAG_subprogram ]
!277 = metadata !{i32 786453, i32 0, metadata !"", i32 0, i32 0, i64 0, i64 0, i64 0, i32 0, null, metadata !278, i32 0, i32 0} ; [ DW_TAG_subroutine_type ]
!278 = metadata !{metadata !159, metadata !257}
!279 = metadata !{i32 786478, i32 0, metadata !91, metadata !"to_long", metadata !"to_long", metadata !"_ZNK11ap_int_baseILi64ELb0ELb1EE7to_longEv", metadata !92, i32 1723, metadata !280, i1 false, i1 false, i32 0, i32 0, null, i32 256, i1 false, null, null, i32 0, metadata !104, i32 1723} ; [ DW_TAG_subprogram ]
!280 = metadata !{i32 786453, i32 0, metadata !"", i32 0, i32 0, i64 0, i64 0, i64 0, i32 0, null, metadata !281, i32 0, i32 0} ; [ DW_TAG_subroutine_type ]
!281 = metadata !{metadata !163, metadata !257}
!282 = metadata !{i32 786478, i32 0, metadata !91, metadata !"to_ulong", metadata !"to_ulong", metadata !"_ZNK11ap_int_baseILi64ELb0ELb1EE8to_ulongEv", metadata !92, i32 1724, metadata !283, i1 false, i1 false, i32 0, i32 0, null, i32 256, i1 false, null, null, i32 0, metadata !104, i32 1724} ; [ DW_TAG_subprogram ]
!283 = metadata !{i32 786453, i32 0, metadata !"", i32 0, i32 0, i64 0, i64 0, i64 0, i32 0, null, metadata !284, i32 0, i32 0} ; [ DW_TAG_subroutine_type ]
!284 = metadata !{metadata !167, metadata !257}
!285 = metadata !{i32 786478, i32 0, metadata !91, metadata !"to_int64", metadata !"to_int64", metadata !"_ZNK11ap_int_baseILi64ELb0ELb1EE8to_int64Ev", metadata !92, i32 1725, metadata !286, i1 false, i1 false, i32 0, i32 0, null, i32 256, i1 false, null, null, i32 0, metadata !104, i32 1725} ; [ DW_TAG_subprogram ]
!286 = metadata !{i32 786453, i32 0, metadata !"", i32 0, i32 0, i64 0, i64 0, i64 0, i32 0, null, metadata !287, i32 0, i32 0} ; [ DW_TAG_subroutine_type ]
!287 = metadata !{metadata !171, metadata !257}
!288 = metadata !{i32 786478, i32 0, metadata !91, metadata !"to_uint64", metadata !"to_uint64", metadata !"_ZNK11ap_int_baseILi64ELb0ELb1EE9to_uint64Ev", metadata !92, i32 1726, metadata !289, i1 false, i1 false, i32 0, i32 0, null, i32 256, i1 false, null, null, i32 0, metadata !104, i32 1726} ; [ DW_TAG_subprogram ]
!289 = metadata !{i32 786453, i32 0, metadata !"", i32 0, i32 0, i64 0, i64 0, i64 0, i32 0, null, metadata !290, i32 0, i32 0} ; [ DW_TAG_subroutine_type ]
!290 = metadata !{metadata !176, metadata !257}
!291 = metadata !{i32 786478, i32 0, metadata !91, metadata !"to_double", metadata !"to_double", metadata !"_ZNK11ap_int_baseILi64ELb0ELb1EE9to_doubleEv", metadata !92, i32 1727, metadata !292, i1 false, i1 false, i32 0, i32 0, null, i32 256, i1 false, null, null, i32 0, metadata !104, i32 1727} ; [ DW_TAG_subprogram ]
!292 = metadata !{i32 786453, i32 0, metadata !"", i32 0, i32 0, i64 0, i64 0, i64 0, i32 0, null, metadata !293, i32 0, i32 0} ; [ DW_TAG_subroutine_type ]
!293 = metadata !{metadata !190, metadata !257}
!294 = metadata !{i32 786478, i32 0, metadata !91, metadata !"length", metadata !"length", metadata !"_ZNK11ap_int_baseILi64ELb0ELb1EE6lengthEv", metadata !92, i32 1741, metadata !274, i1 false, i1 false, i32 0, i32 0, null, i32 256, i1 false, null, null, i32 0, metadata !104, i32 1741} ; [ DW_TAG_subprogram ]
!295 = metadata !{i32 786478, i32 0, metadata !91, metadata !"length", metadata !"length", metadata !"_ZNVK11ap_int_baseILi64ELb0ELb1EE6lengthEv", metadata !92, i32 1742, metadata !296, i1 false, i1 false, i32 0, i32 0, null, i32 256, i1 false, null, null, i32 0, metadata !104, i32 1742} ; [ DW_TAG_subprogram ]
!296 = metadata !{i32 786453, i32 0, metadata !"", i32 0, i32 0, i64 0, i64 0, i64 0, i32 0, null, metadata !297, i32 0, i32 0} ; [ DW_TAG_subroutine_type ]
!297 = metadata !{metadata !113, metadata !298}
!298 = metadata !{i32 786447, i32 0, metadata !"", i32 0, i32 0, i64 64, i64 64, i64 0, i32 64, metadata !132} ; [ DW_TAG_pointer_type ]
!299 = metadata !{i32 786478, i32 0, metadata !91, metadata !"reverse", metadata !"reverse", metadata !"_ZN11ap_int_baseILi64ELb0ELb1EE7reverseEv", metadata !92, i32 1747, metadata !300, i1 false, i1 false, i32 0, i32 0, null, i32 256, i1 false, null, null, i32 0, metadata !104, i32 1747} ; [ DW_TAG_subprogram ]
!300 = metadata !{i32 786453, i32 0, metadata !"", i32 0, i32 0, i64 0, i64 0, i64 0, i32 0, null, metadata !301, i32 0, i32 0} ; [ DW_TAG_subroutine_type ]
!301 = metadata !{metadata !214, metadata !119}
!302 = metadata !{i32 786478, i32 0, metadata !91, metadata !"iszero", metadata !"iszero", metadata !"_ZNK11ap_int_baseILi64ELb0ELb1EE6iszeroEv", metadata !92, i32 1753, metadata !259, i1 false, i1 false, i32 0, i32 0, null, i32 256, i1 false, null, null, i32 0, metadata !104, i32 1753} ; [ DW_TAG_subprogram ]
!303 = metadata !{i32 786478, i32 0, metadata !91, metadata !"is_zero", metadata !"is_zero", metadata !"_ZNK11ap_int_baseILi64ELb0ELb1EE7is_zeroEv", metadata !92, i32 1758, metadata !259, i1 false, i1 false, i32 0, i32 0, null, i32 256, i1 false, null, null, i32 0, metadata !104, i32 1758} ; [ DW_TAG_subprogram ]
!304 = metadata !{i32 786478, i32 0, metadata !91, metadata !"sign", metadata !"sign", metadata !"_ZNK11ap_int_baseILi64ELb0ELb1EE4signEv", metadata !92, i32 1763, metadata !259, i1 false, i1 false, i32 0, i32 0, null, i32 256, i1 false, null, null, i32 0, metadata !104, i32 1763} ; [ DW_TAG_subprogram ]
!305 = metadata !{i32 786478, i32 0, metadata !91, metadata !"clear", metadata !"clear", metadata !"_ZN11ap_int_baseILi64ELb0ELb1EE5clearEi", metadata !92, i32 1771, metadata !154, i1 false, i1 false, i32 0, i32 0, null, i32 256, i1 false, null, null, i32 0, metadata !104, i32 1771} ; [ DW_TAG_subprogram ]
!306 = metadata !{i32 786478, i32 0, metadata !91, metadata !"invert", metadata !"invert", metadata !"_ZN11ap_int_baseILi64ELb0ELb1EE6invertEi", metadata !92, i32 1777, metadata !154, i1 false, i1 false, i32 0, i32 0, null, i32 256, i1 false, null, null, i32 0, metadata !104, i32 1777} ; [ DW_TAG_subprogram ]
!307 = metadata !{i32 786478, i32 0, metadata !91, metadata !"test", metadata !"test", metadata !"_ZNK11ap_int_baseILi64ELb0ELb1EE4testEi", metadata !92, i32 1785, metadata !308, i1 false, i1 false, i32 0, i32 0, null, i32 256, i1 false, null, null, i32 0, metadata !104, i32 1785} ; [ DW_TAG_subprogram ]
!308 = metadata !{i32 786453, i32 0, metadata !"", i32 0, i32 0, i64 0, i64 0, i64 0, i32 0, null, metadata !309, i32 0, i32 0} ; [ DW_TAG_subroutine_type ]
!309 = metadata !{metadata !115, metadata !257, metadata !113}
!310 = metadata !{i32 786478, i32 0, metadata !91, metadata !"set", metadata !"set", metadata !"_ZN11ap_int_baseILi64ELb0ELb1EE3setEi", metadata !92, i32 1791, metadata !154, i1 false, i1 false, i32 0, i32 0, null, i32 256, i1 false, null, null, i32 0, metadata !104, i32 1791} ; [ DW_TAG_subprogram ]
!311 = metadata !{i32 786478, i32 0, metadata !91, metadata !"set", metadata !"set", metadata !"_ZN11ap_int_baseILi64ELb0ELb1EE3setEib", metadata !92, i32 1797, metadata !312, i1 false, i1 false, i32 0, i32 0, null, i32 256, i1 false, null, null, i32 0, metadata !104, i32 1797} ; [ DW_TAG_subprogram ]
!312 = metadata !{i32 786453, i32 0, metadata !"", i32 0, i32 0, i64 0, i64 0, i64 0, i32 0, null, metadata !313, i32 0, i32 0} ; [ DW_TAG_subroutine_type ]
!313 = metadata !{null, metadata !119, metadata !113, metadata !115}
!314 = metadata !{i32 786478, i32 0, metadata !91, metadata !"lrotate", metadata !"lrotate", metadata !"_ZN11ap_int_baseILi64ELb0ELb1EE7lrotateEi", metadata !92, i32 1804, metadata !154, i1 false, i1 false, i32 0, i32 0, null, i32 256, i1 false, null, null, i32 0, metadata !104, i32 1804} ; [ DW_TAG_subprogram ]
!315 = metadata !{i32 786478, i32 0, metadata !91, metadata !"rrotate", metadata !"rrotate", metadata !"_ZN11ap_int_baseILi64ELb0ELb1EE7rrotateEi", metadata !92, i32 1813, metadata !154, i1 false, i1 false, i32 0, i32 0, null, i32 256, i1 false, null, null, i32 0, metadata !104, i32 1813} ; [ DW_TAG_subprogram ]
!316 = metadata !{i32 786478, i32 0, metadata !91, metadata !"set_bit", metadata !"set_bit", metadata !"_ZN11ap_int_baseILi64ELb0ELb1EE7set_bitEib", metadata !92, i32 1821, metadata !312, i1 false, i1 false, i32 0, i32 0, null, i32 256, i1 false, null, null, i32 0, metadata !104, i32 1821} ; [ DW_TAG_subprogram ]
!317 = metadata !{i32 786478, i32 0, metadata !91, metadata !"get_bit", metadata !"get_bit", metadata !"_ZNK11ap_int_baseILi64ELb0ELb1EE7get_bitEi", metadata !92, i32 1826, metadata !308, i1 false, i1 false, i32 0, i32 0, null, i32 256, i1 false, null, null, i32 0, metadata !104, i32 1826} ; [ DW_TAG_subprogram ]
!318 = metadata !{i32 786478, i32 0, metadata !91, metadata !"b_not", metadata !"b_not", metadata !"_ZN11ap_int_baseILi64ELb0ELb1EE5b_notEv", metadata !92, i32 1831, metadata !117, i1 false, i1 false, i32 0, i32 0, null, i32 256, i1 false, null, null, i32 0, metadata !104, i32 1831} ; [ DW_TAG_subprogram ]
!319 = metadata !{i32 786478, i32 0, metadata !91, metadata !"countLeadingZeros", metadata !"countLeadingZeros", metadata !"_ZN11ap_int_baseILi64ELb0ELb1EE17countLeadingZerosEv", metadata !92, i32 1838, metadata !320, i1 false, i1 false, i32 0, i32 0, null, i32 256, i1 false, null, null, i32 0, metadata !104, i32 1838} ; [ DW_TAG_subprogram ]
!320 = metadata !{i32 786453, i32 0, metadata !"", i32 0, i32 0, i64 0, i64 0, i64 0, i32 0, null, metadata !321, i32 0, i32 0} ; [ DW_TAG_subroutine_type ]
!321 = metadata !{metadata !113, metadata !119}
!322 = metadata !{i32 786478, i32 0, metadata !91, metadata !"operator++", metadata !"operator++", metadata !"_ZN11ap_int_baseILi64ELb0ELb1EEppEv", metadata !92, i32 1895, metadata !300, i1 false, i1 false, i32 0, i32 0, null, i32 256, i1 false, null, null, i32 0, metadata !104, i32 1895} ; [ DW_TAG_subprogram ]
!323 = metadata !{i32 786478, i32 0, metadata !91, metadata !"operator--", metadata !"operator--", metadata !"_ZN11ap_int_baseILi64ELb0ELb1EEmmEv", metadata !92, i32 1899, metadata !300, i1 false, i1 false, i32 0, i32 0, null, i32 256, i1 false, null, null, i32 0, metadata !104, i32 1899} ; [ DW_TAG_subprogram ]
!324 = metadata !{i32 786478, i32 0, metadata !91, metadata !"operator++", metadata !"operator++", metadata !"_ZN11ap_int_baseILi64ELb0ELb1EEppEi", metadata !92, i32 1907, metadata !325, i1 false, i1 false, i32 0, i32 0, null, i32 256, i1 false, null, null, i32 0, metadata !104, i32 1907} ; [ DW_TAG_subprogram ]
!325 = metadata !{i32 786453, i32 0, metadata !"", i32 0, i32 0, i64 0, i64 0, i64 0, i32 0, null, metadata !326, i32 0, i32 0} ; [ DW_TAG_subroutine_type ]
!326 = metadata !{metadata !124, metadata !119, metadata !113}
!327 = metadata !{i32 786478, i32 0, metadata !91, metadata !"operator--", metadata !"operator--", metadata !"_ZN11ap_int_baseILi64ELb0ELb1EEmmEi", metadata !92, i32 1912, metadata !325, i1 false, i1 false, i32 0, i32 0, null, i32 256, i1 false, null, null, i32 0, metadata !104, i32 1912} ; [ DW_TAG_subprogram ]
!328 = metadata !{i32 786478, i32 0, metadata !91, metadata !"operator+", metadata !"operator+", metadata !"_ZNK11ap_int_baseILi64ELb0ELb1EEpsEv", metadata !92, i32 1921, metadata !329, i1 false, i1 false, i32 0, i32 0, null, i32 256, i1 false, null, null, i32 0, metadata !104, i32 1921} ; [ DW_TAG_subprogram ]
!329 = metadata !{i32 786453, i32 0, metadata !"", i32 0, i32 0, i64 0, i64 0, i64 0, i32 0, null, metadata !330, i32 0, i32 0} ; [ DW_TAG_subroutine_type ]
!330 = metadata !{metadata !91, metadata !257}
!331 = metadata !{i32 786478, i32 0, metadata !91, metadata !"operator!", metadata !"operator!", metadata !"_ZNK11ap_int_baseILi64ELb0ELb1EEntEv", metadata !92, i32 1927, metadata !259, i1 false, i1 false, i32 0, i32 0, null, i32 256, i1 false, null, null, i32 0, metadata !104, i32 1927} ; [ DW_TAG_subprogram ]
!332 = metadata !{i32 786478, i32 0, metadata !91, metadata !"operator-", metadata !"operator-", metadata !"_ZNK11ap_int_baseILi64ELb0ELb1EEngEv", metadata !92, i32 1932, metadata !333, i1 false, i1 false, i32 0, i32 0, null, i32 256, i1 false, null, null, i32 0, metadata !104, i32 1932} ; [ DW_TAG_subprogram ]
!333 = metadata !{i32 786453, i32 0, metadata !"", i32 0, i32 0, i64 0, i64 0, i64 0, i32 0, null, metadata !334, i32 0, i32 0} ; [ DW_TAG_subroutine_type ]
!334 = metadata !{metadata !335, metadata !257}
!335 = metadata !{i32 786434, null, metadata !"ap_int_base<64, true, true>", metadata !92, i32 1453, i64 64, i64 64, i32 0, i32 0, null, metadata !336, i32 0, null, metadata !590} ; [ DW_TAG_class_type ]
!336 = metadata !{metadata !337, metadata !348, metadata !352, metadata !359, metadata !365, metadata !368, metadata !371, metadata !374, metadata !377, metadata !380, metadata !383, metadata !386, metadata !389, metadata !392, metadata !395, metadata !398, metadata !401, metadata !404, metadata !407, metadata !410, metadata !413, metadata !417, metadata !420, metadata !423, metadata !424, metadata !428, metadata !431, metadata !434, metadata !437, metadata !440, metadata !443, metadata !446, metadata !449, metadata !452, metadata !455, metadata !458, metadata !461, metadata !469, metadata !472, metadata !475, metadata !478, metadata !481, metadata !484, metadata !487, metadata !490, metadata !493, metadata !496, metadata !499, metadata !502, metadata !505, metadata !506, metadata !510, metadata !513, metadata !514, metadata !515, metadata !516, metadata !517, metadata !518, metadata !521, metadata !522, metadata !525, metadata !526, metadata !527, metadata !528, metadata !529, metadata !530, metadata !533, metadata !534, metadata !535, metadata !538, metadata !539, metadata !542, metadata !543, metadata !544, metadata !548, metadata !549, metadata !552, metadata !553, metadata !557, metadata !558, metadata !559, metadata !560, metadata !563, metadata !564, metadata !565, metadata !566, metadata !567, metadata !568, metadata !569, metadata !570, metadata !571, metadata !572, metadata !573, metadata !574, metadata !584, metadata !587}
!337 = metadata !{i32 786460, metadata !335, null, metadata !92, i32 0, i64 0, i64 0, i64 0, i32 0, metadata !338} ; [ DW_TAG_inheritance ]
!338 = metadata !{i32 786434, null, metadata !"ssdm_int<64 + 1024 * 0, true>", metadata !96, i32 68, i64 64, i64 64, i32 0, i32 0, null, metadata !339, i32 0, null, metadata !346} ; [ DW_TAG_class_type ]
!339 = metadata !{metadata !340, metadata !342}
!340 = metadata !{i32 786445, metadata !338, metadata !"V", metadata !96, i32 68, i64 64, i64 64, i64 0, i32 0, metadata !341} ; [ DW_TAG_member ]
!341 = metadata !{i32 786468, null, metadata !"int64", null, i32 0, i64 64, i64 64, i64 0, i32 0, i32 5} ; [ DW_TAG_base_type ]
!342 = metadata !{i32 786478, i32 0, metadata !338, metadata !"ssdm_int", metadata !"ssdm_int", metadata !"", metadata !96, i32 68, metadata !343, i1 false, i1 false, i32 0, i32 0, null, i32 256, i1 false, null, null, i32 0, metadata !104, i32 68} ; [ DW_TAG_subprogram ]
!343 = metadata !{i32 786453, i32 0, metadata !"", i32 0, i32 0, i64 0, i64 0, i64 0, i32 0, null, metadata !344, i32 0, i32 0} ; [ DW_TAG_subroutine_type ]
!344 = metadata !{null, metadata !345}
!345 = metadata !{i32 786447, i32 0, metadata !"", i32 0, i32 0, i64 64, i64 64, i64 0, i32 64, metadata !338} ; [ DW_TAG_pointer_type ]
!346 = metadata !{metadata !112, metadata !347}
!347 = metadata !{i32 786480, null, metadata !"_AP_S", metadata !115, i64 1, null, i32 0, i32 0} ; [ DW_TAG_template_value_parameter ]
!348 = metadata !{i32 786478, i32 0, metadata !335, metadata !"ap_int_base", metadata !"ap_int_base", metadata !"", metadata !92, i32 1494, metadata !349, i1 false, i1 false, i32 0, i32 0, null, i32 256, i1 false, null, null, i32 0, metadata !104, i32 1494} ; [ DW_TAG_subprogram ]
!349 = metadata !{i32 786453, i32 0, metadata !"", i32 0, i32 0, i64 0, i64 0, i64 0, i32 0, null, metadata !350, i32 0, i32 0} ; [ DW_TAG_subroutine_type ]
!350 = metadata !{null, metadata !351}
!351 = metadata !{i32 786447, i32 0, metadata !"", i32 0, i32 0, i64 64, i64 64, i64 0, i32 64, metadata !335} ; [ DW_TAG_pointer_type ]
!352 = metadata !{i32 786478, i32 0, metadata !335, metadata !"ap_int_base<64, true>", metadata !"ap_int_base<64, true>", metadata !"", metadata !92, i32 1506, metadata !353, i1 false, i1 false, i32 0, i32 0, null, i32 256, i1 false, null, metadata !357, i32 0, metadata !104, i32 1506} ; [ DW_TAG_subprogram ]
!353 = metadata !{i32 786453, i32 0, metadata !"", i32 0, i32 0, i64 0, i64 0, i64 0, i32 0, null, metadata !354, i32 0, i32 0} ; [ DW_TAG_subroutine_type ]
!354 = metadata !{null, metadata !351, metadata !355}
!355 = metadata !{i32 786448, null, null, null, i32 0, i64 0, i64 0, i64 0, i32 0, metadata !356} ; [ DW_TAG_reference_type ]
!356 = metadata !{i32 786470, null, metadata !"", null, i32 0, i64 0, i64 0, i64 0, i32 0, metadata !335} ; [ DW_TAG_const_type ]
!357 = metadata !{metadata !126, metadata !358}
!358 = metadata !{i32 786480, null, metadata !"_AP_S2", metadata !115, i64 1, null, i32 0, i32 0} ; [ DW_TAG_template_value_parameter ]
!359 = metadata !{i32 786478, i32 0, metadata !335, metadata !"ap_int_base<64, true>", metadata !"ap_int_base<64, true>", metadata !"", metadata !92, i32 1509, metadata !360, i1 false, i1 false, i32 0, i32 0, null, i32 256, i1 false, null, metadata !357, i32 0, metadata !104, i32 1509} ; [ DW_TAG_subprogram ]
!360 = metadata !{i32 786453, i32 0, metadata !"", i32 0, i32 0, i64 0, i64 0, i64 0, i32 0, null, metadata !361, i32 0, i32 0} ; [ DW_TAG_subroutine_type ]
!361 = metadata !{null, metadata !351, metadata !362}
!362 = metadata !{i32 786448, null, null, null, i32 0, i64 0, i64 0, i64 0, i32 0, metadata !363} ; [ DW_TAG_reference_type ]
!363 = metadata !{i32 786470, null, metadata !"", null, i32 0, i64 0, i64 0, i64 0, i32 0, metadata !364} ; [ DW_TAG_const_type ]
!364 = metadata !{i32 786485, null, metadata !"", null, i32 0, i64 0, i64 0, i64 0, i32 0, metadata !335} ; [ DW_TAG_volatile_type ]
!365 = metadata !{i32 786478, i32 0, metadata !335, metadata !"ap_int_base", metadata !"ap_int_base", metadata !"", metadata !92, i32 1516, metadata !366, i1 false, i1 false, i32 0, i32 0, null, i32 384, i1 false, null, null, i32 0, metadata !104, i32 1516} ; [ DW_TAG_subprogram ]
!366 = metadata !{i32 786453, i32 0, metadata !"", i32 0, i32 0, i64 0, i64 0, i64 0, i32 0, null, metadata !367, i32 0, i32 0} ; [ DW_TAG_subroutine_type ]
!367 = metadata !{null, metadata !351, metadata !115}
!368 = metadata !{i32 786478, i32 0, metadata !335, metadata !"ap_int_base", metadata !"ap_int_base", metadata !"", metadata !92, i32 1517, metadata !369, i1 false, i1 false, i32 0, i32 0, null, i32 384, i1 false, null, null, i32 0, metadata !104, i32 1517} ; [ DW_TAG_subprogram ]
!369 = metadata !{i32 786453, i32 0, metadata !"", i32 0, i32 0, i64 0, i64 0, i64 0, i32 0, null, metadata !370, i32 0, i32 0} ; [ DW_TAG_subroutine_type ]
!370 = metadata !{null, metadata !351, metadata !140}
!371 = metadata !{i32 786478, i32 0, metadata !335, metadata !"ap_int_base", metadata !"ap_int_base", metadata !"", metadata !92, i32 1518, metadata !372, i1 false, i1 false, i32 0, i32 0, null, i32 384, i1 false, null, null, i32 0, metadata !104, i32 1518} ; [ DW_TAG_subprogram ]
!372 = metadata !{i32 786453, i32 0, metadata !"", i32 0, i32 0, i64 0, i64 0, i64 0, i32 0, null, metadata !373, i32 0, i32 0} ; [ DW_TAG_subroutine_type ]
!373 = metadata !{null, metadata !351, metadata !144}
!374 = metadata !{i32 786478, i32 0, metadata !335, metadata !"ap_int_base", metadata !"ap_int_base", metadata !"", metadata !92, i32 1519, metadata !375, i1 false, i1 false, i32 0, i32 0, null, i32 384, i1 false, null, null, i32 0, metadata !104, i32 1519} ; [ DW_TAG_subprogram ]
!375 = metadata !{i32 786453, i32 0, metadata !"", i32 0, i32 0, i64 0, i64 0, i64 0, i32 0, null, metadata !376, i32 0, i32 0} ; [ DW_TAG_subroutine_type ]
!376 = metadata !{null, metadata !351, metadata !148}
!377 = metadata !{i32 786478, i32 0, metadata !335, metadata !"ap_int_base", metadata !"ap_int_base", metadata !"", metadata !92, i32 1520, metadata !378, i1 false, i1 false, i32 0, i32 0, null, i32 384, i1 false, null, null, i32 0, metadata !104, i32 1520} ; [ DW_TAG_subprogram ]
!378 = metadata !{i32 786453, i32 0, metadata !"", i32 0, i32 0, i64 0, i64 0, i64 0, i32 0, null, metadata !379, i32 0, i32 0} ; [ DW_TAG_subroutine_type ]
!379 = metadata !{null, metadata !351, metadata !152}
!380 = metadata !{i32 786478, i32 0, metadata !335, metadata !"ap_int_base", metadata !"ap_int_base", metadata !"", metadata !92, i32 1521, metadata !381, i1 false, i1 false, i32 0, i32 0, null, i32 384, i1 false, null, null, i32 0, metadata !104, i32 1521} ; [ DW_TAG_subprogram ]
!381 = metadata !{i32 786453, i32 0, metadata !"", i32 0, i32 0, i64 0, i64 0, i64 0, i32 0, null, metadata !382, i32 0, i32 0} ; [ DW_TAG_subroutine_type ]
!382 = metadata !{null, metadata !351, metadata !113}
!383 = metadata !{i32 786478, i32 0, metadata !335, metadata !"ap_int_base", metadata !"ap_int_base", metadata !"", metadata !92, i32 1522, metadata !384, i1 false, i1 false, i32 0, i32 0, null, i32 384, i1 false, null, null, i32 0, metadata !104, i32 1522} ; [ DW_TAG_subprogram ]
!384 = metadata !{i32 786453, i32 0, metadata !"", i32 0, i32 0, i64 0, i64 0, i64 0, i32 0, null, metadata !385, i32 0, i32 0} ; [ DW_TAG_subroutine_type ]
!385 = metadata !{null, metadata !351, metadata !159}
!386 = metadata !{i32 786478, i32 0, metadata !335, metadata !"ap_int_base", metadata !"ap_int_base", metadata !"", metadata !92, i32 1523, metadata !387, i1 false, i1 false, i32 0, i32 0, null, i32 384, i1 false, null, null, i32 0, metadata !104, i32 1523} ; [ DW_TAG_subprogram ]
!387 = metadata !{i32 786453, i32 0, metadata !"", i32 0, i32 0, i64 0, i64 0, i64 0, i32 0, null, metadata !388, i32 0, i32 0} ; [ DW_TAG_subroutine_type ]
!388 = metadata !{null, metadata !351, metadata !163}
!389 = metadata !{i32 786478, i32 0, metadata !335, metadata !"ap_int_base", metadata !"ap_int_base", metadata !"", metadata !92, i32 1524, metadata !390, i1 false, i1 false, i32 0, i32 0, null, i32 384, i1 false, null, null, i32 0, metadata !104, i32 1524} ; [ DW_TAG_subprogram ]
!390 = metadata !{i32 786453, i32 0, metadata !"", i32 0, i32 0, i64 0, i64 0, i64 0, i32 0, null, metadata !391, i32 0, i32 0} ; [ DW_TAG_subroutine_type ]
!391 = metadata !{null, metadata !351, metadata !167}
!392 = metadata !{i32 786478, i32 0, metadata !335, metadata !"ap_int_base", metadata !"ap_int_base", metadata !"", metadata !92, i32 1525, metadata !393, i1 false, i1 false, i32 0, i32 0, null, i32 384, i1 false, null, null, i32 0, metadata !104, i32 1525} ; [ DW_TAG_subprogram ]
!393 = metadata !{i32 786453, i32 0, metadata !"", i32 0, i32 0, i64 0, i64 0, i64 0, i32 0, null, metadata !394, i32 0, i32 0} ; [ DW_TAG_subroutine_type ]
!394 = metadata !{null, metadata !351, metadata !171}
!395 = metadata !{i32 786478, i32 0, metadata !335, metadata !"ap_int_base", metadata !"ap_int_base", metadata !"", metadata !92, i32 1526, metadata !396, i1 false, i1 false, i32 0, i32 0, null, i32 384, i1 false, null, null, i32 0, metadata !104, i32 1526} ; [ DW_TAG_subprogram ]
!396 = metadata !{i32 786453, i32 0, metadata !"", i32 0, i32 0, i64 0, i64 0, i64 0, i32 0, null, metadata !397, i32 0, i32 0} ; [ DW_TAG_subroutine_type ]
!397 = metadata !{null, metadata !351, metadata !176}
!398 = metadata !{i32 786478, i32 0, metadata !335, metadata !"ap_int_base", metadata !"ap_int_base", metadata !"", metadata !92, i32 1527, metadata !399, i1 false, i1 false, i32 0, i32 0, null, i32 384, i1 false, null, null, i32 0, metadata !104, i32 1527} ; [ DW_TAG_subprogram ]
!399 = metadata !{i32 786453, i32 0, metadata !"", i32 0, i32 0, i64 0, i64 0, i64 0, i32 0, null, metadata !400, i32 0, i32 0} ; [ DW_TAG_subroutine_type ]
!400 = metadata !{null, metadata !351, metadata !181}
!401 = metadata !{i32 786478, i32 0, metadata !335, metadata !"ap_int_base", metadata !"ap_int_base", metadata !"", metadata !92, i32 1528, metadata !402, i1 false, i1 false, i32 0, i32 0, null, i32 384, i1 false, null, null, i32 0, metadata !104, i32 1528} ; [ DW_TAG_subprogram ]
!402 = metadata !{i32 786453, i32 0, metadata !"", i32 0, i32 0, i64 0, i64 0, i64 0, i32 0, null, metadata !403, i32 0, i32 0} ; [ DW_TAG_subroutine_type ]
!403 = metadata !{null, metadata !351, metadata !186}
!404 = metadata !{i32 786478, i32 0, metadata !335, metadata !"ap_int_base", metadata !"ap_int_base", metadata !"", metadata !92, i32 1529, metadata !405, i1 false, i1 false, i32 0, i32 0, null, i32 384, i1 false, null, null, i32 0, metadata !104, i32 1529} ; [ DW_TAG_subprogram ]
!405 = metadata !{i32 786453, i32 0, metadata !"", i32 0, i32 0, i64 0, i64 0, i64 0, i32 0, null, metadata !406, i32 0, i32 0} ; [ DW_TAG_subroutine_type ]
!406 = metadata !{null, metadata !351, metadata !190}
!407 = metadata !{i32 786478, i32 0, metadata !335, metadata !"ap_int_base", metadata !"ap_int_base", metadata !"", metadata !92, i32 1556, metadata !408, i1 false, i1 false, i32 0, i32 0, null, i32 256, i1 false, null, null, i32 0, metadata !104, i32 1556} ; [ DW_TAG_subprogram ]
!408 = metadata !{i32 786453, i32 0, metadata !"", i32 0, i32 0, i64 0, i64 0, i64 0, i32 0, null, metadata !409, i32 0, i32 0} ; [ DW_TAG_subroutine_type ]
!409 = metadata !{null, metadata !351, metadata !194}
!410 = metadata !{i32 786478, i32 0, metadata !335, metadata !"ap_int_base", metadata !"ap_int_base", metadata !"", metadata !92, i32 1563, metadata !411, i1 false, i1 false, i32 0, i32 0, null, i32 256, i1 false, null, null, i32 0, metadata !104, i32 1563} ; [ DW_TAG_subprogram ]
!411 = metadata !{i32 786453, i32 0, metadata !"", i32 0, i32 0, i64 0, i64 0, i64 0, i32 0, null, metadata !412, i32 0, i32 0} ; [ DW_TAG_subroutine_type ]
!412 = metadata !{null, metadata !351, metadata !194, metadata !140}
!413 = metadata !{i32 786478, i32 0, metadata !335, metadata !"read", metadata !"read", metadata !"_ZNV11ap_int_baseILi64ELb1ELb1EE4readEv", metadata !92, i32 1584, metadata !414, i1 false, i1 false, i32 0, i32 0, null, i32 256, i1 false, null, null, i32 0, metadata !104, i32 1584} ; [ DW_TAG_subprogram ]
!414 = metadata !{i32 786453, i32 0, metadata !"", i32 0, i32 0, i64 0, i64 0, i64 0, i32 0, null, metadata !415, i32 0, i32 0} ; [ DW_TAG_subroutine_type ]
!415 = metadata !{metadata !335, metadata !416}
!416 = metadata !{i32 786447, i32 0, metadata !"", i32 0, i32 0, i64 64, i64 64, i64 0, i32 64, metadata !364} ; [ DW_TAG_pointer_type ]
!417 = metadata !{i32 786478, i32 0, metadata !335, metadata !"write", metadata !"write", metadata !"_ZNV11ap_int_baseILi64ELb1ELb1EE5writeERKS0_", metadata !92, i32 1590, metadata !418, i1 false, i1 false, i32 0, i32 0, null, i32 256, i1 false, null, null, i32 0, metadata !104, i32 1590} ; [ DW_TAG_subprogram ]
!418 = metadata !{i32 786453, i32 0, metadata !"", i32 0, i32 0, i64 0, i64 0, i64 0, i32 0, null, metadata !419, i32 0, i32 0} ; [ DW_TAG_subroutine_type ]
!419 = metadata !{null, metadata !416, metadata !355}
!420 = metadata !{i32 786478, i32 0, metadata !335, metadata !"operator=", metadata !"operator=", metadata !"_ZNV11ap_int_baseILi64ELb1ELb1EEaSERVKS0_", metadata !92, i32 1602, metadata !421, i1 false, i1 false, i32 0, i32 0, null, i32 256, i1 false, null, null, i32 0, metadata !104, i32 1602} ; [ DW_TAG_subprogram ]
!421 = metadata !{i32 786453, i32 0, metadata !"", i32 0, i32 0, i64 0, i64 0, i64 0, i32 0, null, metadata !422, i32 0, i32 0} ; [ DW_TAG_subroutine_type ]
!422 = metadata !{null, metadata !416, metadata !362}
!423 = metadata !{i32 786478, i32 0, metadata !335, metadata !"operator=", metadata !"operator=", metadata !"_ZNV11ap_int_baseILi64ELb1ELb1EEaSERKS0_", metadata !92, i32 1611, metadata !418, i1 false, i1 false, i32 0, i32 0, null, i32 256, i1 false, null, null, i32 0, metadata !104, i32 1611} ; [ DW_TAG_subprogram ]
!424 = metadata !{i32 786478, i32 0, metadata !335, metadata !"operator=", metadata !"operator=", metadata !"_ZN11ap_int_baseILi64ELb1ELb1EEaSERVKS0_", metadata !92, i32 1634, metadata !425, i1 false, i1 false, i32 0, i32 0, null, i32 256, i1 false, null, null, i32 0, metadata !104, i32 1634} ; [ DW_TAG_subprogram ]
!425 = metadata !{i32 786453, i32 0, metadata !"", i32 0, i32 0, i64 0, i64 0, i64 0, i32 0, null, metadata !426, i32 0, i32 0} ; [ DW_TAG_subroutine_type ]
!426 = metadata !{metadata !427, metadata !351, metadata !362}
!427 = metadata !{i32 786448, null, null, null, i32 0, i64 0, i64 0, i64 0, i32 0, metadata !335} ; [ DW_TAG_reference_type ]
!428 = metadata !{i32 786478, i32 0, metadata !335, metadata !"operator=", metadata !"operator=", metadata !"_ZN11ap_int_baseILi64ELb1ELb1EEaSERKS0_", metadata !92, i32 1639, metadata !429, i1 false, i1 false, i32 0, i32 0, null, i32 256, i1 false, null, null, i32 0, metadata !104, i32 1639} ; [ DW_TAG_subprogram ]
!429 = metadata !{i32 786453, i32 0, metadata !"", i32 0, i32 0, i64 0, i64 0, i64 0, i32 0, null, metadata !430, i32 0, i32 0} ; [ DW_TAG_subroutine_type ]
!430 = metadata !{metadata !427, metadata !351, metadata !355}
!431 = metadata !{i32 786478, i32 0, metadata !335, metadata !"operator=", metadata !"operator=", metadata !"_ZN11ap_int_baseILi64ELb1ELb1EEaSEPKc", metadata !92, i32 1643, metadata !432, i1 false, i1 false, i32 0, i32 0, null, i32 256, i1 false, null, null, i32 0, metadata !104, i32 1643} ; [ DW_TAG_subprogram ]
!432 = metadata !{i32 786453, i32 0, metadata !"", i32 0, i32 0, i64 0, i64 0, i64 0, i32 0, null, metadata !433, i32 0, i32 0} ; [ DW_TAG_subroutine_type ]
!433 = metadata !{metadata !427, metadata !351, metadata !194}
!434 = metadata !{i32 786478, i32 0, metadata !335, metadata !"set", metadata !"set", metadata !"_ZN11ap_int_baseILi64ELb1ELb1EE3setEPKca", metadata !92, i32 1651, metadata !435, i1 false, i1 false, i32 0, i32 0, null, i32 256, i1 false, null, null, i32 0, metadata !104, i32 1651} ; [ DW_TAG_subprogram ]
!435 = metadata !{i32 786453, i32 0, metadata !"", i32 0, i32 0, i64 0, i64 0, i64 0, i32 0, null, metadata !436, i32 0, i32 0} ; [ DW_TAG_subroutine_type ]
!436 = metadata !{metadata !427, metadata !351, metadata !194, metadata !140}
!437 = metadata !{i32 786478, i32 0, metadata !335, metadata !"operator=", metadata !"operator=", metadata !"_ZN11ap_int_baseILi64ELb1ELb1EEaSEa", metadata !92, i32 1665, metadata !438, i1 false, i1 false, i32 0, i32 0, null, i32 256, i1 false, null, null, i32 0, metadata !104, i32 1665} ; [ DW_TAG_subprogram ]
!438 = metadata !{i32 786453, i32 0, metadata !"", i32 0, i32 0, i64 0, i64 0, i64 0, i32 0, null, metadata !439, i32 0, i32 0} ; [ DW_TAG_subroutine_type ]
!439 = metadata !{metadata !427, metadata !351, metadata !140}
!440 = metadata !{i32 786478, i32 0, metadata !335, metadata !"operator=", metadata !"operator=", metadata !"_ZN11ap_int_baseILi64ELb1ELb1EEaSEh", metadata !92, i32 1666, metadata !441, i1 false, i1 false, i32 0, i32 0, null, i32 256, i1 false, null, null, i32 0, metadata !104, i32 1666} ; [ DW_TAG_subprogram ]
!441 = metadata !{i32 786453, i32 0, metadata !"", i32 0, i32 0, i64 0, i64 0, i64 0, i32 0, null, metadata !442, i32 0, i32 0} ; [ DW_TAG_subroutine_type ]
!442 = metadata !{metadata !427, metadata !351, metadata !144}
!443 = metadata !{i32 786478, i32 0, metadata !335, metadata !"operator=", metadata !"operator=", metadata !"_ZN11ap_int_baseILi64ELb1ELb1EEaSEs", metadata !92, i32 1667, metadata !444, i1 false, i1 false, i32 0, i32 0, null, i32 256, i1 false, null, null, i32 0, metadata !104, i32 1667} ; [ DW_TAG_subprogram ]
!444 = metadata !{i32 786453, i32 0, metadata !"", i32 0, i32 0, i64 0, i64 0, i64 0, i32 0, null, metadata !445, i32 0, i32 0} ; [ DW_TAG_subroutine_type ]
!445 = metadata !{metadata !427, metadata !351, metadata !148}
!446 = metadata !{i32 786478, i32 0, metadata !335, metadata !"operator=", metadata !"operator=", metadata !"_ZN11ap_int_baseILi64ELb1ELb1EEaSEt", metadata !92, i32 1668, metadata !447, i1 false, i1 false, i32 0, i32 0, null, i32 256, i1 false, null, null, i32 0, metadata !104, i32 1668} ; [ DW_TAG_subprogram ]
!447 = metadata !{i32 786453, i32 0, metadata !"", i32 0, i32 0, i64 0, i64 0, i64 0, i32 0, null, metadata !448, i32 0, i32 0} ; [ DW_TAG_subroutine_type ]
!448 = metadata !{metadata !427, metadata !351, metadata !152}
!449 = metadata !{i32 786478, i32 0, metadata !335, metadata !"operator=", metadata !"operator=", metadata !"_ZN11ap_int_baseILi64ELb1ELb1EEaSEi", metadata !92, i32 1669, metadata !450, i1 false, i1 false, i32 0, i32 0, null, i32 256, i1 false, null, null, i32 0, metadata !104, i32 1669} ; [ DW_TAG_subprogram ]
!450 = metadata !{i32 786453, i32 0, metadata !"", i32 0, i32 0, i64 0, i64 0, i64 0, i32 0, null, metadata !451, i32 0, i32 0} ; [ DW_TAG_subroutine_type ]
!451 = metadata !{metadata !427, metadata !351, metadata !113}
!452 = metadata !{i32 786478, i32 0, metadata !335, metadata !"operator=", metadata !"operator=", metadata !"_ZN11ap_int_baseILi64ELb1ELb1EEaSEj", metadata !92, i32 1670, metadata !453, i1 false, i1 false, i32 0, i32 0, null, i32 256, i1 false, null, null, i32 0, metadata !104, i32 1670} ; [ DW_TAG_subprogram ]
!453 = metadata !{i32 786453, i32 0, metadata !"", i32 0, i32 0, i64 0, i64 0, i64 0, i32 0, null, metadata !454, i32 0, i32 0} ; [ DW_TAG_subroutine_type ]
!454 = metadata !{metadata !427, metadata !351, metadata !159}
!455 = metadata !{i32 786478, i32 0, metadata !335, metadata !"operator=", metadata !"operator=", metadata !"_ZN11ap_int_baseILi64ELb1ELb1EEaSEx", metadata !92, i32 1671, metadata !456, i1 false, i1 false, i32 0, i32 0, null, i32 256, i1 false, null, null, i32 0, metadata !104, i32 1671} ; [ DW_TAG_subprogram ]
!456 = metadata !{i32 786453, i32 0, metadata !"", i32 0, i32 0, i64 0, i64 0, i64 0, i32 0, null, metadata !457, i32 0, i32 0} ; [ DW_TAG_subroutine_type ]
!457 = metadata !{metadata !427, metadata !351, metadata !171}
!458 = metadata !{i32 786478, i32 0, metadata !335, metadata !"operator=", metadata !"operator=", metadata !"_ZN11ap_int_baseILi64ELb1ELb1EEaSEy", metadata !92, i32 1672, metadata !459, i1 false, i1 false, i32 0, i32 0, null, i32 256, i1 false, null, null, i32 0, metadata !104, i32 1672} ; [ DW_TAG_subprogram ]
!459 = metadata !{i32 786453, i32 0, metadata !"", i32 0, i32 0, i64 0, i64 0, i64 0, i32 0, null, metadata !460, i32 0, i32 0} ; [ DW_TAG_subroutine_type ]
!460 = metadata !{metadata !427, metadata !351, metadata !176}
!461 = metadata !{i32 786478, i32 0, metadata !335, metadata !"operator long long", metadata !"operator long long", metadata !"_ZNK11ap_int_baseILi64ELb1ELb1EEcvxEv", metadata !92, i32 1710, metadata !462, i1 false, i1 false, i32 0, i32 0, null, i32 256, i1 false, null, null, i32 0, metadata !104, i32 1710} ; [ DW_TAG_subprogram ]
!462 = metadata !{i32 786453, i32 0, metadata !"", i32 0, i32 0, i64 0, i64 0, i64 0, i32 0, null, metadata !463, i32 0, i32 0} ; [ DW_TAG_subroutine_type ]
!463 = metadata !{metadata !464, metadata !468}
!464 = metadata !{i32 786454, metadata !335, metadata !"RetType", metadata !92, i32 1458, i64 0, i64 0, i64 0, i32 0, metadata !465} ; [ DW_TAG_typedef ]
!465 = metadata !{i32 786454, metadata !466, metadata !"Type", metadata !92, i32 1415, i64 0, i64 0, i64 0, i32 0, metadata !171} ; [ DW_TAG_typedef ]
!466 = metadata !{i32 786434, null, metadata !"retval<8, true>", metadata !92, i32 1414, i64 8, i64 8, i32 0, i32 0, null, metadata !254, i32 0, null, metadata !467} ; [ DW_TAG_class_type ]
!467 = metadata !{metadata !256, metadata !347}
!468 = metadata !{i32 786447, i32 0, metadata !"", i32 0, i32 0, i64 64, i64 64, i64 0, i32 64, metadata !356} ; [ DW_TAG_pointer_type ]
!469 = metadata !{i32 786478, i32 0, metadata !335, metadata !"to_bool", metadata !"to_bool", metadata !"_ZNK11ap_int_baseILi64ELb1ELb1EE7to_boolEv", metadata !92, i32 1716, metadata !470, i1 false, i1 false, i32 0, i32 0, null, i32 256, i1 false, null, null, i32 0, metadata !104, i32 1716} ; [ DW_TAG_subprogram ]
!470 = metadata !{i32 786453, i32 0, metadata !"", i32 0, i32 0, i64 0, i64 0, i64 0, i32 0, null, metadata !471, i32 0, i32 0} ; [ DW_TAG_subroutine_type ]
!471 = metadata !{metadata !115, metadata !468}
!472 = metadata !{i32 786478, i32 0, metadata !335, metadata !"to_uchar", metadata !"to_uchar", metadata !"_ZNK11ap_int_baseILi64ELb1ELb1EE8to_ucharEv", metadata !92, i32 1717, metadata !473, i1 false, i1 false, i32 0, i32 0, null, i32 256, i1 false, null, null, i32 0, metadata !104, i32 1717} ; [ DW_TAG_subprogram ]
!473 = metadata !{i32 786453, i32 0, metadata !"", i32 0, i32 0, i64 0, i64 0, i64 0, i32 0, null, metadata !474, i32 0, i32 0} ; [ DW_TAG_subroutine_type ]
!474 = metadata !{metadata !144, metadata !468}
!475 = metadata !{i32 786478, i32 0, metadata !335, metadata !"to_char", metadata !"to_char", metadata !"_ZNK11ap_int_baseILi64ELb1ELb1EE7to_charEv", metadata !92, i32 1718, metadata !476, i1 false, i1 false, i32 0, i32 0, null, i32 256, i1 false, null, null, i32 0, metadata !104, i32 1718} ; [ DW_TAG_subprogram ]
!476 = metadata !{i32 786453, i32 0, metadata !"", i32 0, i32 0, i64 0, i64 0, i64 0, i32 0, null, metadata !477, i32 0, i32 0} ; [ DW_TAG_subroutine_type ]
!477 = metadata !{metadata !140, metadata !468}
!478 = metadata !{i32 786478, i32 0, metadata !335, metadata !"to_ushort", metadata !"to_ushort", metadata !"_ZNK11ap_int_baseILi64ELb1ELb1EE9to_ushortEv", metadata !92, i32 1719, metadata !479, i1 false, i1 false, i32 0, i32 0, null, i32 256, i1 false, null, null, i32 0, metadata !104, i32 1719} ; [ DW_TAG_subprogram ]
!479 = metadata !{i32 786453, i32 0, metadata !"", i32 0, i32 0, i64 0, i64 0, i64 0, i32 0, null, metadata !480, i32 0, i32 0} ; [ DW_TAG_subroutine_type ]
!480 = metadata !{metadata !152, metadata !468}
!481 = metadata !{i32 786478, i32 0, metadata !335, metadata !"to_short", metadata !"to_short", metadata !"_ZNK11ap_int_baseILi64ELb1ELb1EE8to_shortEv", metadata !92, i32 1720, metadata !482, i1 false, i1 false, i32 0, i32 0, null, i32 256, i1 false, null, null, i32 0, metadata !104, i32 1720} ; [ DW_TAG_subprogram ]
!482 = metadata !{i32 786453, i32 0, metadata !"", i32 0, i32 0, i64 0, i64 0, i64 0, i32 0, null, metadata !483, i32 0, i32 0} ; [ DW_TAG_subroutine_type ]
!483 = metadata !{metadata !148, metadata !468}
!484 = metadata !{i32 786478, i32 0, metadata !335, metadata !"to_int", metadata !"to_int", metadata !"_ZNK11ap_int_baseILi64ELb1ELb1EE6to_intEv", metadata !92, i32 1721, metadata !485, i1 false, i1 false, i32 0, i32 0, null, i32 256, i1 false, null, null, i32 0, metadata !104, i32 1721} ; [ DW_TAG_subprogram ]
!485 = metadata !{i32 786453, i32 0, metadata !"", i32 0, i32 0, i64 0, i64 0, i64 0, i32 0, null, metadata !486, i32 0, i32 0} ; [ DW_TAG_subroutine_type ]
!486 = metadata !{metadata !113, metadata !468}
!487 = metadata !{i32 786478, i32 0, metadata !335, metadata !"to_uint", metadata !"to_uint", metadata !"_ZNK11ap_int_baseILi64ELb1ELb1EE7to_uintEv", metadata !92, i32 1722, metadata !488, i1 false, i1 false, i32 0, i32 0, null, i32 256, i1 false, null, null, i32 0, metadata !104, i32 1722} ; [ DW_TAG_subprogram ]
!488 = metadata !{i32 786453, i32 0, metadata !"", i32 0, i32 0, i64 0, i64 0, i64 0, i32 0, null, metadata !489, i32 0, i32 0} ; [ DW_TAG_subroutine_type ]
!489 = metadata !{metadata !159, metadata !468}
!490 = metadata !{i32 786478, i32 0, metadata !335, metadata !"to_long", metadata !"to_long", metadata !"_ZNK11ap_int_baseILi64ELb1ELb1EE7to_longEv", metadata !92, i32 1723, metadata !491, i1 false, i1 false, i32 0, i32 0, null, i32 256, i1 false, null, null, i32 0, metadata !104, i32 1723} ; [ DW_TAG_subprogram ]
!491 = metadata !{i32 786453, i32 0, metadata !"", i32 0, i32 0, i64 0, i64 0, i64 0, i32 0, null, metadata !492, i32 0, i32 0} ; [ DW_TAG_subroutine_type ]
!492 = metadata !{metadata !163, metadata !468}
!493 = metadata !{i32 786478, i32 0, metadata !335, metadata !"to_ulong", metadata !"to_ulong", metadata !"_ZNK11ap_int_baseILi64ELb1ELb1EE8to_ulongEv", metadata !92, i32 1724, metadata !494, i1 false, i1 false, i32 0, i32 0, null, i32 256, i1 false, null, null, i32 0, metadata !104, i32 1724} ; [ DW_TAG_subprogram ]
!494 = metadata !{i32 786453, i32 0, metadata !"", i32 0, i32 0, i64 0, i64 0, i64 0, i32 0, null, metadata !495, i32 0, i32 0} ; [ DW_TAG_subroutine_type ]
!495 = metadata !{metadata !167, metadata !468}
!496 = metadata !{i32 786478, i32 0, metadata !335, metadata !"to_int64", metadata !"to_int64", metadata !"_ZNK11ap_int_baseILi64ELb1ELb1EE8to_int64Ev", metadata !92, i32 1725, metadata !497, i1 false, i1 false, i32 0, i32 0, null, i32 256, i1 false, null, null, i32 0, metadata !104, i32 1725} ; [ DW_TAG_subprogram ]
!497 = metadata !{i32 786453, i32 0, metadata !"", i32 0, i32 0, i64 0, i64 0, i64 0, i32 0, null, metadata !498, i32 0, i32 0} ; [ DW_TAG_subroutine_type ]
!498 = metadata !{metadata !171, metadata !468}
!499 = metadata !{i32 786478, i32 0, metadata !335, metadata !"to_uint64", metadata !"to_uint64", metadata !"_ZNK11ap_int_baseILi64ELb1ELb1EE9to_uint64Ev", metadata !92, i32 1726, metadata !500, i1 false, i1 false, i32 0, i32 0, null, i32 256, i1 false, null, null, i32 0, metadata !104, i32 1726} ; [ DW_TAG_subprogram ]
!500 = metadata !{i32 786453, i32 0, metadata !"", i32 0, i32 0, i64 0, i64 0, i64 0, i32 0, null, metadata !501, i32 0, i32 0} ; [ DW_TAG_subroutine_type ]
!501 = metadata !{metadata !176, metadata !468}
!502 = metadata !{i32 786478, i32 0, metadata !335, metadata !"to_double", metadata !"to_double", metadata !"_ZNK11ap_int_baseILi64ELb1ELb1EE9to_doubleEv", metadata !92, i32 1727, metadata !503, i1 false, i1 false, i32 0, i32 0, null, i32 256, i1 false, null, null, i32 0, metadata !104, i32 1727} ; [ DW_TAG_subprogram ]
!503 = metadata !{i32 786453, i32 0, metadata !"", i32 0, i32 0, i64 0, i64 0, i64 0, i32 0, null, metadata !504, i32 0, i32 0} ; [ DW_TAG_subroutine_type ]
!504 = metadata !{metadata !190, metadata !468}
!505 = metadata !{i32 786478, i32 0, metadata !335, metadata !"length", metadata !"length", metadata !"_ZNK11ap_int_baseILi64ELb1ELb1EE6lengthEv", metadata !92, i32 1741, metadata !485, i1 false, i1 false, i32 0, i32 0, null, i32 256, i1 false, null, null, i32 0, metadata !104, i32 1741} ; [ DW_TAG_subprogram ]
!506 = metadata !{i32 786478, i32 0, metadata !335, metadata !"length", metadata !"length", metadata !"_ZNVK11ap_int_baseILi64ELb1ELb1EE6lengthEv", metadata !92, i32 1742, metadata !507, i1 false, i1 false, i32 0, i32 0, null, i32 256, i1 false, null, null, i32 0, metadata !104, i32 1742} ; [ DW_TAG_subprogram ]
!507 = metadata !{i32 786453, i32 0, metadata !"", i32 0, i32 0, i64 0, i64 0, i64 0, i32 0, null, metadata !508, i32 0, i32 0} ; [ DW_TAG_subroutine_type ]
!508 = metadata !{metadata !113, metadata !509}
!509 = metadata !{i32 786447, i32 0, metadata !"", i32 0, i32 0, i64 64, i64 64, i64 0, i32 64, metadata !363} ; [ DW_TAG_pointer_type ]
!510 = metadata !{i32 786478, i32 0, metadata !335, metadata !"reverse", metadata !"reverse", metadata !"_ZN11ap_int_baseILi64ELb1ELb1EE7reverseEv", metadata !92, i32 1747, metadata !511, i1 false, i1 false, i32 0, i32 0, null, i32 256, i1 false, null, null, i32 0, metadata !104, i32 1747} ; [ DW_TAG_subprogram ]
!511 = metadata !{i32 786453, i32 0, metadata !"", i32 0, i32 0, i64 0, i64 0, i64 0, i32 0, null, metadata !512, i32 0, i32 0} ; [ DW_TAG_subroutine_type ]
!512 = metadata !{metadata !427, metadata !351}
!513 = metadata !{i32 786478, i32 0, metadata !335, metadata !"iszero", metadata !"iszero", metadata !"_ZNK11ap_int_baseILi64ELb1ELb1EE6iszeroEv", metadata !92, i32 1753, metadata !470, i1 false, i1 false, i32 0, i32 0, null, i32 256, i1 false, null, null, i32 0, metadata !104, i32 1753} ; [ DW_TAG_subprogram ]
!514 = metadata !{i32 786478, i32 0, metadata !335, metadata !"is_zero", metadata !"is_zero", metadata !"_ZNK11ap_int_baseILi64ELb1ELb1EE7is_zeroEv", metadata !92, i32 1758, metadata !470, i1 false, i1 false, i32 0, i32 0, null, i32 256, i1 false, null, null, i32 0, metadata !104, i32 1758} ; [ DW_TAG_subprogram ]
!515 = metadata !{i32 786478, i32 0, metadata !335, metadata !"sign", metadata !"sign", metadata !"_ZNK11ap_int_baseILi64ELb1ELb1EE4signEv", metadata !92, i32 1763, metadata !470, i1 false, i1 false, i32 0, i32 0, null, i32 256, i1 false, null, null, i32 0, metadata !104, i32 1763} ; [ DW_TAG_subprogram ]
!516 = metadata !{i32 786478, i32 0, metadata !335, metadata !"clear", metadata !"clear", metadata !"_ZN11ap_int_baseILi64ELb1ELb1EE5clearEi", metadata !92, i32 1771, metadata !381, i1 false, i1 false, i32 0, i32 0, null, i32 256, i1 false, null, null, i32 0, metadata !104, i32 1771} ; [ DW_TAG_subprogram ]
!517 = metadata !{i32 786478, i32 0, metadata !335, metadata !"invert", metadata !"invert", metadata !"_ZN11ap_int_baseILi64ELb1ELb1EE6invertEi", metadata !92, i32 1777, metadata !381, i1 false, i1 false, i32 0, i32 0, null, i32 256, i1 false, null, null, i32 0, metadata !104, i32 1777} ; [ DW_TAG_subprogram ]
!518 = metadata !{i32 786478, i32 0, metadata !335, metadata !"test", metadata !"test", metadata !"_ZNK11ap_int_baseILi64ELb1ELb1EE4testEi", metadata !92, i32 1785, metadata !519, i1 false, i1 false, i32 0, i32 0, null, i32 256, i1 false, null, null, i32 0, metadata !104, i32 1785} ; [ DW_TAG_subprogram ]
!519 = metadata !{i32 786453, i32 0, metadata !"", i32 0, i32 0, i64 0, i64 0, i64 0, i32 0, null, metadata !520, i32 0, i32 0} ; [ DW_TAG_subroutine_type ]
!520 = metadata !{metadata !115, metadata !468, metadata !113}
!521 = metadata !{i32 786478, i32 0, metadata !335, metadata !"set", metadata !"set", metadata !"_ZN11ap_int_baseILi64ELb1ELb1EE3setEi", metadata !92, i32 1791, metadata !381, i1 false, i1 false, i32 0, i32 0, null, i32 256, i1 false, null, null, i32 0, metadata !104, i32 1791} ; [ DW_TAG_subprogram ]
!522 = metadata !{i32 786478, i32 0, metadata !335, metadata !"set", metadata !"set", metadata !"_ZN11ap_int_baseILi64ELb1ELb1EE3setEib", metadata !92, i32 1797, metadata !523, i1 false, i1 false, i32 0, i32 0, null, i32 256, i1 false, null, null, i32 0, metadata !104, i32 1797} ; [ DW_TAG_subprogram ]
!523 = metadata !{i32 786453, i32 0, metadata !"", i32 0, i32 0, i64 0, i64 0, i64 0, i32 0, null, metadata !524, i32 0, i32 0} ; [ DW_TAG_subroutine_type ]
!524 = metadata !{null, metadata !351, metadata !113, metadata !115}
!525 = metadata !{i32 786478, i32 0, metadata !335, metadata !"lrotate", metadata !"lrotate", metadata !"_ZN11ap_int_baseILi64ELb1ELb1EE7lrotateEi", metadata !92, i32 1804, metadata !381, i1 false, i1 false, i32 0, i32 0, null, i32 256, i1 false, null, null, i32 0, metadata !104, i32 1804} ; [ DW_TAG_subprogram ]
!526 = metadata !{i32 786478, i32 0, metadata !335, metadata !"rrotate", metadata !"rrotate", metadata !"_ZN11ap_int_baseILi64ELb1ELb1EE7rrotateEi", metadata !92, i32 1813, metadata !381, i1 false, i1 false, i32 0, i32 0, null, i32 256, i1 false, null, null, i32 0, metadata !104, i32 1813} ; [ DW_TAG_subprogram ]
!527 = metadata !{i32 786478, i32 0, metadata !335, metadata !"set_bit", metadata !"set_bit", metadata !"_ZN11ap_int_baseILi64ELb1ELb1EE7set_bitEib", metadata !92, i32 1821, metadata !523, i1 false, i1 false, i32 0, i32 0, null, i32 256, i1 false, null, null, i32 0, metadata !104, i32 1821} ; [ DW_TAG_subprogram ]
!528 = metadata !{i32 786478, i32 0, metadata !335, metadata !"get_bit", metadata !"get_bit", metadata !"_ZNK11ap_int_baseILi64ELb1ELb1EE7get_bitEi", metadata !92, i32 1826, metadata !519, i1 false, i1 false, i32 0, i32 0, null, i32 256, i1 false, null, null, i32 0, metadata !104, i32 1826} ; [ DW_TAG_subprogram ]
!529 = metadata !{i32 786478, i32 0, metadata !335, metadata !"b_not", metadata !"b_not", metadata !"_ZN11ap_int_baseILi64ELb1ELb1EE5b_notEv", metadata !92, i32 1831, metadata !349, i1 false, i1 false, i32 0, i32 0, null, i32 256, i1 false, null, null, i32 0, metadata !104, i32 1831} ; [ DW_TAG_subprogram ]
!530 = metadata !{i32 786478, i32 0, metadata !335, metadata !"countLeadingZeros", metadata !"countLeadingZeros", metadata !"_ZN11ap_int_baseILi64ELb1ELb1EE17countLeadingZerosEv", metadata !92, i32 1838, metadata !531, i1 false, i1 false, i32 0, i32 0, null, i32 256, i1 false, null, null, i32 0, metadata !104, i32 1838} ; [ DW_TAG_subprogram ]
!531 = metadata !{i32 786453, i32 0, metadata !"", i32 0, i32 0, i64 0, i64 0, i64 0, i32 0, null, metadata !532, i32 0, i32 0} ; [ DW_TAG_subroutine_type ]
!532 = metadata !{metadata !113, metadata !351}
!533 = metadata !{i32 786478, i32 0, metadata !335, metadata !"operator++", metadata !"operator++", metadata !"_ZN11ap_int_baseILi64ELb1ELb1EEppEv", metadata !92, i32 1895, metadata !511, i1 false, i1 false, i32 0, i32 0, null, i32 256, i1 false, null, null, i32 0, metadata !104, i32 1895} ; [ DW_TAG_subprogram ]
!534 = metadata !{i32 786478, i32 0, metadata !335, metadata !"operator--", metadata !"operator--", metadata !"_ZN11ap_int_baseILi64ELb1ELb1EEmmEv", metadata !92, i32 1899, metadata !511, i1 false, i1 false, i32 0, i32 0, null, i32 256, i1 false, null, null, i32 0, metadata !104, i32 1899} ; [ DW_TAG_subprogram ]
!535 = metadata !{i32 786478, i32 0, metadata !335, metadata !"operator++", metadata !"operator++", metadata !"_ZN11ap_int_baseILi64ELb1ELb1EEppEi", metadata !92, i32 1907, metadata !536, i1 false, i1 false, i32 0, i32 0, null, i32 256, i1 false, null, null, i32 0, metadata !104, i32 1907} ; [ DW_TAG_subprogram ]
!536 = metadata !{i32 786453, i32 0, metadata !"", i32 0, i32 0, i64 0, i64 0, i64 0, i32 0, null, metadata !537, i32 0, i32 0} ; [ DW_TAG_subroutine_type ]
!537 = metadata !{metadata !356, metadata !351, metadata !113}
!538 = metadata !{i32 786478, i32 0, metadata !335, metadata !"operator--", metadata !"operator--", metadata !"_ZN11ap_int_baseILi64ELb1ELb1EEmmEi", metadata !92, i32 1912, metadata !536, i1 false, i1 false, i32 0, i32 0, null, i32 256, i1 false, null, null, i32 0, metadata !104, i32 1912} ; [ DW_TAG_subprogram ]
!539 = metadata !{i32 786478, i32 0, metadata !335, metadata !"operator+", metadata !"operator+", metadata !"_ZNK11ap_int_baseILi64ELb1ELb1EEpsEv", metadata !92, i32 1921, metadata !540, i1 false, i1 false, i32 0, i32 0, null, i32 256, i1 false, null, null, i32 0, metadata !104, i32 1921} ; [ DW_TAG_subprogram ]
!540 = metadata !{i32 786453, i32 0, metadata !"", i32 0, i32 0, i64 0, i64 0, i64 0, i32 0, null, metadata !541, i32 0, i32 0} ; [ DW_TAG_subroutine_type ]
!541 = metadata !{metadata !335, metadata !468}
!542 = metadata !{i32 786478, i32 0, metadata !335, metadata !"operator!", metadata !"operator!", metadata !"_ZNK11ap_int_baseILi64ELb1ELb1EEntEv", metadata !92, i32 1927, metadata !470, i1 false, i1 false, i32 0, i32 0, null, i32 256, i1 false, null, null, i32 0, metadata !104, i32 1927} ; [ DW_TAG_subprogram ]
!543 = metadata !{i32 786478, i32 0, metadata !335, metadata !"operator-", metadata !"operator-", metadata !"_ZNK11ap_int_baseILi64ELb1ELb1EEngEv", metadata !92, i32 1932, metadata !540, i1 false, i1 false, i32 0, i32 0, null, i32 256, i1 false, null, null, i32 0, metadata !104, i32 1932} ; [ DW_TAG_subprogram ]
!544 = metadata !{i32 786478, i32 0, metadata !335, metadata !"range", metadata !"range", metadata !"_ZN11ap_int_baseILi64ELb1ELb1EE5rangeEii", metadata !92, i32 2062, metadata !545, i1 false, i1 false, i32 0, i32 0, null, i32 256, i1 false, null, null, i32 0, metadata !104, i32 2062} ; [ DW_TAG_subprogram ]
!545 = metadata !{i32 786453, i32 0, metadata !"", i32 0, i32 0, i64 0, i64 0, i64 0, i32 0, null, metadata !546, i32 0, i32 0} ; [ DW_TAG_subroutine_type ]
!546 = metadata !{metadata !547, metadata !351, metadata !113, metadata !113}
!547 = metadata !{i32 786434, null, metadata !"ap_range_ref<64, true>", metadata !92, i32 925, i32 0, i32 0, i32 0, i32 4, null, null, i32 0} ; [ DW_TAG_class_type ]
!548 = metadata !{i32 786478, i32 0, metadata !335, metadata !"operator()", metadata !"operator()", metadata !"_ZN11ap_int_baseILi64ELb1ELb1EEclEii", metadata !92, i32 2068, metadata !545, i1 false, i1 false, i32 0, i32 0, null, i32 256, i1 false, null, null, i32 0, metadata !104, i32 2068} ; [ DW_TAG_subprogram ]
!549 = metadata !{i32 786478, i32 0, metadata !335, metadata !"range", metadata !"range", metadata !"_ZNK11ap_int_baseILi64ELb1ELb1EE5rangeEii", metadata !92, i32 2074, metadata !550, i1 false, i1 false, i32 0, i32 0, null, i32 256, i1 false, null, null, i32 0, metadata !104, i32 2074} ; [ DW_TAG_subprogram ]
!550 = metadata !{i32 786453, i32 0, metadata !"", i32 0, i32 0, i64 0, i64 0, i64 0, i32 0, null, metadata !551, i32 0, i32 0} ; [ DW_TAG_subroutine_type ]
!551 = metadata !{metadata !547, metadata !468, metadata !113, metadata !113}
!552 = metadata !{i32 786478, i32 0, metadata !335, metadata !"operator()", metadata !"operator()", metadata !"_ZNK11ap_int_baseILi64ELb1ELb1EEclEii", metadata !92, i32 2080, metadata !550, i1 false, i1 false, i32 0, i32 0, null, i32 256, i1 false, null, null, i32 0, metadata !104, i32 2080} ; [ DW_TAG_subprogram ]
!553 = metadata !{i32 786478, i32 0, metadata !335, metadata !"operator[]", metadata !"operator[]", metadata !"_ZN11ap_int_baseILi64ELb1ELb1EEixEi", metadata !92, i32 2099, metadata !554, i1 false, i1 false, i32 0, i32 0, null, i32 256, i1 false, null, null, i32 0, metadata !104, i32 2099} ; [ DW_TAG_subprogram ]
!554 = metadata !{i32 786453, i32 0, metadata !"", i32 0, i32 0, i64 0, i64 0, i64 0, i32 0, null, metadata !555, i32 0, i32 0} ; [ DW_TAG_subroutine_type ]
!555 = metadata !{metadata !556, metadata !351, metadata !113}
!556 = metadata !{i32 786434, null, metadata !"ap_bit_ref<64, true>", metadata !92, i32 1249, i32 0, i32 0, i32 0, i32 4, null, null, i32 0} ; [ DW_TAG_class_type ]
!557 = metadata !{i32 786478, i32 0, metadata !335, metadata !"operator[]", metadata !"operator[]", metadata !"_ZNK11ap_int_baseILi64ELb1ELb1EEixEi", metadata !92, i32 2113, metadata !519, i1 false, i1 false, i32 0, i32 0, null, i32 256, i1 false, null, null, i32 0, metadata !104, i32 2113} ; [ DW_TAG_subprogram ]
!558 = metadata !{i32 786478, i32 0, metadata !335, metadata !"bit", metadata !"bit", metadata !"_ZN11ap_int_baseILi64ELb1ELb1EE3bitEi", metadata !92, i32 2127, metadata !554, i1 false, i1 false, i32 0, i32 0, null, i32 256, i1 false, null, null, i32 0, metadata !104, i32 2127} ; [ DW_TAG_subprogram ]
!559 = metadata !{i32 786478, i32 0, metadata !335, metadata !"bit", metadata !"bit", metadata !"_ZNK11ap_int_baseILi64ELb1ELb1EE3bitEi", metadata !92, i32 2141, metadata !519, i1 false, i1 false, i32 0, i32 0, null, i32 256, i1 false, null, null, i32 0, metadata !104, i32 2141} ; [ DW_TAG_subprogram ]
!560 = metadata !{i32 786478, i32 0, metadata !335, metadata !"and_reduce", metadata !"and_reduce", metadata !"_ZN11ap_int_baseILi64ELb1ELb1EE10and_reduceEv", metadata !92, i32 2321, metadata !561, i1 false, i1 false, i32 0, i32 0, null, i32 256, i1 false, null, null, i32 0, metadata !104, i32 2321} ; [ DW_TAG_subprogram ]
!561 = metadata !{i32 786453, i32 0, metadata !"", i32 0, i32 0, i64 0, i64 0, i64 0, i32 0, null, metadata !562, i32 0, i32 0} ; [ DW_TAG_subroutine_type ]
!562 = metadata !{metadata !115, metadata !351}
!563 = metadata !{i32 786478, i32 0, metadata !335, metadata !"nand_reduce", metadata !"nand_reduce", metadata !"_ZN11ap_int_baseILi64ELb1ELb1EE11nand_reduceEv", metadata !92, i32 2324, metadata !561, i1 false, i1 false, i32 0, i32 0, null, i32 256, i1 false, null, null, i32 0, metadata !104, i32 2324} ; [ DW_TAG_subprogram ]
!564 = metadata !{i32 786478, i32 0, metadata !335, metadata !"or_reduce", metadata !"or_reduce", metadata !"_ZN11ap_int_baseILi64ELb1ELb1EE9or_reduceEv", metadata !92, i32 2327, metadata !561, i1 false, i1 false, i32 0, i32 0, null, i32 256, i1 false, null, null, i32 0, metadata !104, i32 2327} ; [ DW_TAG_subprogram ]
!565 = metadata !{i32 786478, i32 0, metadata !335, metadata !"nor_reduce", metadata !"nor_reduce", metadata !"_ZN11ap_int_baseILi64ELb1ELb1EE10nor_reduceEv", metadata !92, i32 2330, metadata !561, i1 false, i1 false, i32 0, i32 0, null, i32 256, i1 false, null, null, i32 0, metadata !104, i32 2330} ; [ DW_TAG_subprogram ]
!566 = metadata !{i32 786478, i32 0, metadata !335, metadata !"xor_reduce", metadata !"xor_reduce", metadata !"_ZN11ap_int_baseILi64ELb1ELb1EE10xor_reduceEv", metadata !92, i32 2333, metadata !561, i1 false, i1 false, i32 0, i32 0, null, i32 256, i1 false, null, null, i32 0, metadata !104, i32 2333} ; [ DW_TAG_subprogram ]
!567 = metadata !{i32 786478, i32 0, metadata !335, metadata !"xnor_reduce", metadata !"xnor_reduce", metadata !"_ZN11ap_int_baseILi64ELb1ELb1EE11xnor_reduceEv", metadata !92, i32 2336, metadata !561, i1 false, i1 false, i32 0, i32 0, null, i32 256, i1 false, null, null, i32 0, metadata !104, i32 2336} ; [ DW_TAG_subprogram ]
!568 = metadata !{i32 786478, i32 0, metadata !335, metadata !"and_reduce", metadata !"and_reduce", metadata !"_ZNK11ap_int_baseILi64ELb1ELb1EE10and_reduceEv", metadata !92, i32 2340, metadata !470, i1 false, i1 false, i32 0, i32 0, null, i32 256, i1 false, null, null, i32 0, metadata !104, i32 2340} ; [ DW_TAG_subprogram ]
!569 = metadata !{i32 786478, i32 0, metadata !335, metadata !"nand_reduce", metadata !"nand_reduce", metadata !"_ZNK11ap_int_baseILi64ELb1ELb1EE11nand_reduceEv", metadata !92, i32 2343, metadata !470, i1 false, i1 false, i32 0, i32 0, null, i32 256, i1 false, null, null, i32 0, metadata !104, i32 2343} ; [ DW_TAG_subprogram ]
!570 = metadata !{i32 786478, i32 0, metadata !335, metadata !"or_reduce", metadata !"or_reduce", metadata !"_ZNK11ap_int_baseILi64ELb1ELb1EE9or_reduceEv", metadata !92, i32 2346, metadata !470, i1 false, i1 false, i32 0, i32 0, null, i32 256, i1 false, null, null, i32 0, metadata !104, i32 2346} ; [ DW_TAG_subprogram ]
!571 = metadata !{i32 786478, i32 0, metadata !335, metadata !"nor_reduce", metadata !"nor_reduce", metadata !"_ZNK11ap_int_baseILi64ELb1ELb1EE10nor_reduceEv", metadata !92, i32 2349, metadata !470, i1 false, i1 false, i32 0, i32 0, null, i32 256, i1 false, null, null, i32 0, metadata !104, i32 2349} ; [ DW_TAG_subprogram ]
!572 = metadata !{i32 786478, i32 0, metadata !335, metadata !"xor_reduce", metadata !"xor_reduce", metadata !"_ZNK11ap_int_baseILi64ELb1ELb1EE10xor_reduceEv", metadata !92, i32 2352, metadata !470, i1 false, i1 false, i32 0, i32 0, null, i32 256, i1 false, null, null, i32 0, metadata !104, i32 2352} ; [ DW_TAG_subprogram ]
!573 = metadata !{i32 786478, i32 0, metadata !335, metadata !"xnor_reduce", metadata !"xnor_reduce", metadata !"_ZNK11ap_int_baseILi64ELb1ELb1EE11xnor_reduceEv", metadata !92, i32 2355, metadata !470, i1 false, i1 false, i32 0, i32 0, null, i32 256, i1 false, null, null, i32 0, metadata !104, i32 2355} ; [ DW_TAG_subprogram ]
!574 = metadata !{i32 786478, i32 0, metadata !335, metadata !"to_string", metadata !"to_string", metadata !"_ZNK11ap_int_baseILi64ELb1ELb1EE9to_stringEPci8BaseModeb", metadata !92, i32 2362, metadata !575, i1 false, i1 false, i32 0, i32 0, null, i32 256, i1 false, null, null, i32 0, metadata !104, i32 2362} ; [ DW_TAG_subprogram ]
!575 = metadata !{i32 786453, i32 0, metadata !"", i32 0, i32 0, i64 0, i64 0, i64 0, i32 0, null, metadata !576, i32 0, i32 0} ; [ DW_TAG_subroutine_type ]
!576 = metadata !{null, metadata !468, metadata !577, metadata !113, metadata !578, metadata !115}
!577 = metadata !{i32 786447, null, metadata !"", null, i32 0, i64 64, i64 64, i64 0, i32 0, metadata !196} ; [ DW_TAG_pointer_type ]
!578 = metadata !{i32 786436, null, metadata !"BaseMode", metadata !92, i32 603, i64 5, i64 8, i32 0, i32 0, null, metadata !579, i32 0, i32 0} ; [ DW_TAG_enumeration_type ]
!579 = metadata !{metadata !580, metadata !581, metadata !582, metadata !583}
!580 = metadata !{i32 786472, metadata !"SC_BIN", i64 2} ; [ DW_TAG_enumerator ]
!581 = metadata !{i32 786472, metadata !"SC_OCT", i64 8} ; [ DW_TAG_enumerator ]
!582 = metadata !{i32 786472, metadata !"SC_DEC", i64 10} ; [ DW_TAG_enumerator ]
!583 = metadata !{i32 786472, metadata !"SC_HEX", i64 16} ; [ DW_TAG_enumerator ]
!584 = metadata !{i32 786478, i32 0, metadata !335, metadata !"to_string", metadata !"to_string", metadata !"_ZNK11ap_int_baseILi64ELb1ELb1EE9to_stringE8BaseModeb", metadata !92, i32 2389, metadata !585, i1 false, i1 false, i32 0, i32 0, null, i32 256, i1 false, null, null, i32 0, metadata !104, i32 2389} ; [ DW_TAG_subprogram ]
!585 = metadata !{i32 786453, i32 0, metadata !"", i32 0, i32 0, i64 0, i64 0, i64 0, i32 0, null, metadata !586, i32 0, i32 0} ; [ DW_TAG_subroutine_type ]
!586 = metadata !{metadata !577, metadata !468, metadata !578, metadata !115}
!587 = metadata !{i32 786478, i32 0, metadata !335, metadata !"to_string", metadata !"to_string", metadata !"_ZNK11ap_int_baseILi64ELb1ELb1EE9to_stringEab", metadata !92, i32 2393, metadata !588, i1 false, i1 false, i32 0, i32 0, null, i32 256, i1 false, null, null, i32 0, metadata !104, i32 2393} ; [ DW_TAG_subprogram ]
!588 = metadata !{i32 786453, i32 0, metadata !"", i32 0, i32 0, i64 0, i64 0, i64 0, i32 0, null, metadata !589, i32 0, i32 0} ; [ DW_TAG_subroutine_type ]
!589 = metadata !{metadata !577, metadata !468, metadata !140, metadata !115}
!590 = metadata !{metadata !591, metadata !347, metadata !592}
!591 = metadata !{i32 786480, null, metadata !"_AP_W", metadata !113, i64 64, null, i32 0, i32 0} ; [ DW_TAG_template_value_parameter ]
!592 = metadata !{i32 786480, null, metadata !"_AP_C", metadata !115, i64 1, null, i32 0, i32 0} ; [ DW_TAG_template_value_parameter ]
!593 = metadata !{i32 786478, i32 0, metadata !91, metadata !"range", metadata !"range", metadata !"_ZN11ap_int_baseILi64ELb0ELb1EE5rangeEii", metadata !92, i32 2062, metadata !594, i1 false, i1 false, i32 0, i32 0, null, i32 256, i1 false, null, null, i32 0, metadata !104, i32 2062} ; [ DW_TAG_subprogram ]
!594 = metadata !{i32 786453, i32 0, metadata !"", i32 0, i32 0, i64 0, i64 0, i64 0, i32 0, null, metadata !595, i32 0, i32 0} ; [ DW_TAG_subroutine_type ]
!595 = metadata !{metadata !596, metadata !119, metadata !113, metadata !113}
!596 = metadata !{i32 786434, null, metadata !"ap_range_ref<64, false>", metadata !92, i32 925, i64 128, i64 64, i32 0, i32 0, null, metadata !597, i32 0, null, metadata !2845} ; [ DW_TAG_class_type ]
!597 = metadata !{metadata !598, metadata !599, metadata !600, metadata !601, metadata !607, metadata !611, metadata !615, metadata !618, metadata !622, metadata !947, metadata !2811, metadata !2814, metadata !2818, metadata !2821, metadata !2822, metadata !2825, metadata !2828, metadata !2831, metadata !2834, metadata !2837, metadata !2840, metadata !2841, metadata !2842}
!598 = metadata !{i32 786445, metadata !596, metadata !"d_bv", metadata !92, i32 926, i64 64, i64 64, i64 0, i32 0, metadata !214} ; [ DW_TAG_member ]
!599 = metadata !{i32 786445, metadata !596, metadata !"l_index", metadata !92, i32 927, i64 32, i64 32, i64 64, i32 0, metadata !113} ; [ DW_TAG_member ]
!600 = metadata !{i32 786445, metadata !596, metadata !"h_index", metadata !92, i32 928, i64 32, i64 32, i64 96, i32 0, metadata !113} ; [ DW_TAG_member ]
!601 = metadata !{i32 786478, i32 0, metadata !596, metadata !"ap_range_ref", metadata !"ap_range_ref", metadata !"", metadata !92, i32 931, metadata !602, i1 false, i1 false, i32 0, i32 0, null, i32 256, i1 false, null, null, i32 0, metadata !104, i32 931} ; [ DW_TAG_subprogram ]
!602 = metadata !{i32 786453, i32 0, metadata !"", i32 0, i32 0, i64 0, i64 0, i64 0, i32 0, null, metadata !603, i32 0, i32 0} ; [ DW_TAG_subroutine_type ]
!603 = metadata !{null, metadata !604, metadata !605}
!604 = metadata !{i32 786447, i32 0, metadata !"", i32 0, i32 0, i64 64, i64 64, i64 0, i32 64, metadata !596} ; [ DW_TAG_pointer_type ]
!605 = metadata !{i32 786448, null, null, null, i32 0, i64 0, i64 0, i64 0, i32 0, metadata !606} ; [ DW_TAG_reference_type ]
!606 = metadata !{i32 786470, null, metadata !"", null, i32 0, i64 0, i64 0, i64 0, i32 0, metadata !596} ; [ DW_TAG_const_type ]
!607 = metadata !{i32 786478, i32 0, metadata !596, metadata !"ap_range_ref", metadata !"ap_range_ref", metadata !"", metadata !92, i32 934, metadata !608, i1 false, i1 false, i32 0, i32 0, null, i32 256, i1 false, null, null, i32 0, metadata !104, i32 934} ; [ DW_TAG_subprogram ]
!608 = metadata !{i32 786453, i32 0, metadata !"", i32 0, i32 0, i64 0, i64 0, i64 0, i32 0, null, metadata !609, i32 0, i32 0} ; [ DW_TAG_subroutine_type ]
!609 = metadata !{null, metadata !604, metadata !610, metadata !113, metadata !113}
!610 = metadata !{i32 786447, null, metadata !"", null, i32 0, i64 64, i64 64, i64 0, i32 0, metadata !91} ; [ DW_TAG_pointer_type ]
!611 = metadata !{i32 786478, i32 0, metadata !596, metadata !"operator ap_int_base", metadata !"operator ap_int_base", metadata !"_ZNK12ap_range_refILi64ELb0EEcv11ap_int_baseILi64ELb0ELb1EEEv", metadata !92, i32 939, metadata !612, i1 false, i1 false, i32 0, i32 0, null, i32 256, i1 false, null, null, i32 0, metadata !104, i32 939} ; [ DW_TAG_subprogram ]
!612 = metadata !{i32 786453, i32 0, metadata !"", i32 0, i32 0, i64 0, i64 0, i64 0, i32 0, null, metadata !613, i32 0, i32 0} ; [ DW_TAG_subroutine_type ]
!613 = metadata !{metadata !91, metadata !614}
!614 = metadata !{i32 786447, i32 0, metadata !"", i32 0, i32 0, i64 64, i64 64, i64 0, i32 64, metadata !606} ; [ DW_TAG_pointer_type ]
!615 = metadata !{i32 786478, i32 0, metadata !596, metadata !"operator unsigned long long", metadata !"operator unsigned long long", metadata !"_ZNK12ap_range_refILi64ELb0EEcvyEv", metadata !92, i32 945, metadata !616, i1 false, i1 false, i32 0, i32 0, null, i32 256, i1 false, null, null, i32 0, metadata !104, i32 945} ; [ DW_TAG_subprogram ]
!616 = metadata !{i32 786453, i32 0, metadata !"", i32 0, i32 0, i64 0, i64 0, i64 0, i32 0, null, metadata !617, i32 0, i32 0} ; [ DW_TAG_subroutine_type ]
!617 = metadata !{metadata !177, metadata !614}
!618 = metadata !{i32 786478, i32 0, metadata !596, metadata !"operator=", metadata !"operator=", metadata !"_ZN12ap_range_refILi64ELb0EEaSEy", metadata !92, i32 949, metadata !619, i1 false, i1 false, i32 0, i32 0, null, i32 256, i1 false, null, null, i32 0, metadata !104, i32 949} ; [ DW_TAG_subprogram ]
!619 = metadata !{i32 786453, i32 0, metadata !"", i32 0, i32 0, i64 0, i64 0, i64 0, i32 0, null, metadata !620, i32 0, i32 0} ; [ DW_TAG_subroutine_type ]
!620 = metadata !{metadata !621, metadata !604, metadata !177}
!621 = metadata !{i32 786448, null, null, null, i32 0, i64 0, i64 0, i64 0, i32 0, metadata !596} ; [ DW_TAG_reference_type ]
!622 = metadata !{i32 786478, i32 0, metadata !596, metadata !"operator=<52, false>", metadata !"operator=<52, false>", metadata !"_ZN12ap_range_refILi64ELb0EEaSILi52ELb0EEERS0_RKS_IXT_EXT0_EE", metadata !92, i32 963, metadata !623, i1 false, i1 false, i32 0, i32 0, null, i32 256, i1 false, null, metadata !658, i32 0, metadata !104, i32 963} ; [ DW_TAG_subprogram ]
!623 = metadata !{i32 786453, i32 0, metadata !"", i32 0, i32 0, i64 0, i64 0, i64 0, i32 0, null, metadata !624, i32 0, i32 0} ; [ DW_TAG_subroutine_type ]
!624 = metadata !{metadata !621, metadata !604, metadata !625}
!625 = metadata !{i32 786448, null, null, null, i32 0, i64 0, i64 0, i64 0, i32 0, metadata !626} ; [ DW_TAG_reference_type ]
!626 = metadata !{i32 786470, null, metadata !"", null, i32 0, i64 0, i64 0, i64 0, i32 0, metadata !627} ; [ DW_TAG_const_type ]
!627 = metadata !{i32 786434, null, metadata !"ap_range_ref<52, false>", metadata !92, i32 925, i64 128, i64 64, i32 0, i32 0, null, metadata !628, i32 0, null, metadata !946} ; [ DW_TAG_class_type ]
!628 = metadata !{metadata !629, metadata !888, metadata !889, metadata !890, metadata !894, metadata !898, metadata !902, metadata !905, metadata !909, metadata !912, metadata !915, metadata !919, metadata !922, metadata !923, metadata !926, metadata !929, metadata !932, metadata !935, metadata !938, metadata !941, metadata !942, metadata !943}
!629 = metadata !{i32 786445, metadata !627, metadata !"d_bv", metadata !92, i32 926, i64 64, i64 64, i64 0, i32 0, metadata !630} ; [ DW_TAG_member ]
!630 = metadata !{i32 786448, null, null, null, i32 0, i64 0, i64 0, i64 0, i32 0, metadata !631} ; [ DW_TAG_reference_type ]
!631 = metadata !{i32 786434, null, metadata !"ap_int_base<52, false, true>", metadata !92, i32 1453, i64 64, i64 64, i32 0, i32 0, null, metadata !632, i32 0, null, metadata !886} ; [ DW_TAG_class_type ]
!632 = metadata !{metadata !633, metadata !649, metadata !653, metadata !660, metadata !666, metadata !669, metadata !672, metadata !675, metadata !678, metadata !681, metadata !684, metadata !687, metadata !690, metadata !693, metadata !696, metadata !699, metadata !702, metadata !705, metadata !708, metadata !711, metadata !714, metadata !718, metadata !721, metadata !724, metadata !725, metadata !728, metadata !731, metadata !734, metadata !737, metadata !740, metadata !743, metadata !746, metadata !749, metadata !752, metadata !755, metadata !758, metadata !761, metadata !770, metadata !773, metadata !776, metadata !779, metadata !782, metadata !785, metadata !788, metadata !791, metadata !794, metadata !797, metadata !800, metadata !803, metadata !806, metadata !807, metadata !811, metadata !814, metadata !815, metadata !816, metadata !817, metadata !818, metadata !819, metadata !822, metadata !823, metadata !826, metadata !827, metadata !828, metadata !829, metadata !830, metadata !831, metadata !834, metadata !835, metadata !836, metadata !839, metadata !840, metadata !843, metadata !844, metadata !848, metadata !851, metadata !852, metadata !855, metadata !856, metadata !860, metadata !861, metadata !862, metadata !863, metadata !866, metadata !867, metadata !868, metadata !869, metadata !870, metadata !871, metadata !872, metadata !873, metadata !874, metadata !875, metadata !876, metadata !877, metadata !880, metadata !883}
!633 = metadata !{i32 786460, metadata !631, null, metadata !92, i32 0, i64 0, i64 0, i64 0, i32 0, metadata !634} ; [ DW_TAG_inheritance ]
!634 = metadata !{i32 786434, null, metadata !"ssdm_int<52 + 1024 * 0, false>", metadata !96, i32 54, i64 64, i64 64, i32 0, i32 0, null, metadata !635, i32 0, null, metadata !647} ; [ DW_TAG_class_type ]
!635 = metadata !{metadata !636, metadata !638, metadata !642}
!636 = metadata !{i32 786445, metadata !634, metadata !"V", metadata !96, i32 54, i64 52, i64 64, i64 0, i32 0, metadata !637} ; [ DW_TAG_member ]
!637 = metadata !{i32 786468, null, metadata !"uint52", null, i32 0, i64 52, i64 64, i64 0, i32 0, i32 7} ; [ DW_TAG_base_type ]
!638 = metadata !{i32 786478, i32 0, metadata !634, metadata !"ssdm_int", metadata !"ssdm_int", metadata !"", metadata !96, i32 54, metadata !639, i1 false, i1 false, i32 0, i32 0, null, i32 256, i1 false, null, null, i32 0, metadata !104, i32 54} ; [ DW_TAG_subprogram ]
!639 = metadata !{i32 786453, i32 0, metadata !"", i32 0, i32 0, i64 0, i64 0, i64 0, i32 0, null, metadata !640, i32 0, i32 0} ; [ DW_TAG_subroutine_type ]
!640 = metadata !{null, metadata !641}
!641 = metadata !{i32 786447, i32 0, metadata !"", i32 0, i32 0, i64 64, i64 64, i64 0, i32 64, metadata !634} ; [ DW_TAG_pointer_type ]
!642 = metadata !{i32 786478, i32 0, metadata !634, metadata !"ssdm_int", metadata !"ssdm_int", metadata !"", metadata !96, i32 54, metadata !643, i1 false, i1 false, i32 0, i32 0, null, i32 320, i1 false, null, null, i32 0, metadata !104, i32 54} ; [ DW_TAG_subprogram ]
!643 = metadata !{i32 786453, i32 0, metadata !"", i32 0, i32 0, i64 0, i64 0, i64 0, i32 0, null, metadata !644, i32 0, i32 0} ; [ DW_TAG_subroutine_type ]
!644 = metadata !{null, metadata !641, metadata !645}
!645 = metadata !{i32 786448, null, null, null, i32 0, i64 0, i64 0, i64 0, i32 0, metadata !646} ; [ DW_TAG_reference_type ]
!646 = metadata !{i32 786470, null, metadata !"", null, i32 0, i64 0, i64 0, i64 0, i32 0, metadata !634} ; [ DW_TAG_const_type ]
!647 = metadata !{metadata !648, metadata !114}
!648 = metadata !{i32 786480, null, metadata !"_AP_N", metadata !113, i64 52, null, i32 0, i32 0} ; [ DW_TAG_template_value_parameter ]
!649 = metadata !{i32 786478, i32 0, metadata !631, metadata !"ap_int_base", metadata !"ap_int_base", metadata !"", metadata !92, i32 1494, metadata !650, i1 false, i1 false, i32 0, i32 0, null, i32 256, i1 false, null, null, i32 0, metadata !104, i32 1494} ; [ DW_TAG_subprogram ]
!650 = metadata !{i32 786453, i32 0, metadata !"", i32 0, i32 0, i64 0, i64 0, i64 0, i32 0, null, metadata !651, i32 0, i32 0} ; [ DW_TAG_subroutine_type ]
!651 = metadata !{null, metadata !652}
!652 = metadata !{i32 786447, i32 0, metadata !"", i32 0, i32 0, i64 64, i64 64, i64 0, i32 64, metadata !631} ; [ DW_TAG_pointer_type ]
!653 = metadata !{i32 786478, i32 0, metadata !631, metadata !"ap_int_base<52, false>", metadata !"ap_int_base<52, false>", metadata !"", metadata !92, i32 1506, metadata !654, i1 false, i1 false, i32 0, i32 0, null, i32 256, i1 false, null, metadata !658, i32 0, metadata !104, i32 1506} ; [ DW_TAG_subprogram ]
!654 = metadata !{i32 786453, i32 0, metadata !"", i32 0, i32 0, i64 0, i64 0, i64 0, i32 0, null, metadata !655, i32 0, i32 0} ; [ DW_TAG_subroutine_type ]
!655 = metadata !{null, metadata !652, metadata !656}
!656 = metadata !{i32 786448, null, null, null, i32 0, i64 0, i64 0, i64 0, i32 0, metadata !657} ; [ DW_TAG_reference_type ]
!657 = metadata !{i32 786470, null, metadata !"", null, i32 0, i64 0, i64 0, i64 0, i32 0, metadata !631} ; [ DW_TAG_const_type ]
!658 = metadata !{metadata !659, metadata !127}
!659 = metadata !{i32 786480, null, metadata !"_AP_W2", metadata !113, i64 52, null, i32 0, i32 0} ; [ DW_TAG_template_value_parameter ]
!660 = metadata !{i32 786478, i32 0, metadata !631, metadata !"ap_int_base<52, false>", metadata !"ap_int_base<52, false>", metadata !"", metadata !92, i32 1509, metadata !661, i1 false, i1 false, i32 0, i32 0, null, i32 256, i1 false, null, metadata !658, i32 0, metadata !104, i32 1509} ; [ DW_TAG_subprogram ]
!661 = metadata !{i32 786453, i32 0, metadata !"", i32 0, i32 0, i64 0, i64 0, i64 0, i32 0, null, metadata !662, i32 0, i32 0} ; [ DW_TAG_subroutine_type ]
!662 = metadata !{null, metadata !652, metadata !663}
!663 = metadata !{i32 786448, null, null, null, i32 0, i64 0, i64 0, i64 0, i32 0, metadata !664} ; [ DW_TAG_reference_type ]
!664 = metadata !{i32 786470, null, metadata !"", null, i32 0, i64 0, i64 0, i64 0, i32 0, metadata !665} ; [ DW_TAG_const_type ]
!665 = metadata !{i32 786485, null, metadata !"", null, i32 0, i64 0, i64 0, i64 0, i32 0, metadata !631} ; [ DW_TAG_volatile_type ]
!666 = metadata !{i32 786478, i32 0, metadata !631, metadata !"ap_int_base", metadata !"ap_int_base", metadata !"", metadata !92, i32 1516, metadata !667, i1 false, i1 false, i32 0, i32 0, null, i32 384, i1 false, null, null, i32 0, metadata !104, i32 1516} ; [ DW_TAG_subprogram ]
!667 = metadata !{i32 786453, i32 0, metadata !"", i32 0, i32 0, i64 0, i64 0, i64 0, i32 0, null, metadata !668, i32 0, i32 0} ; [ DW_TAG_subroutine_type ]
!668 = metadata !{null, metadata !652, metadata !115}
!669 = metadata !{i32 786478, i32 0, metadata !631, metadata !"ap_int_base", metadata !"ap_int_base", metadata !"", metadata !92, i32 1517, metadata !670, i1 false, i1 false, i32 0, i32 0, null, i32 384, i1 false, null, null, i32 0, metadata !104, i32 1517} ; [ DW_TAG_subprogram ]
!670 = metadata !{i32 786453, i32 0, metadata !"", i32 0, i32 0, i64 0, i64 0, i64 0, i32 0, null, metadata !671, i32 0, i32 0} ; [ DW_TAG_subroutine_type ]
!671 = metadata !{null, metadata !652, metadata !140}
!672 = metadata !{i32 786478, i32 0, metadata !631, metadata !"ap_int_base", metadata !"ap_int_base", metadata !"", metadata !92, i32 1518, metadata !673, i1 false, i1 false, i32 0, i32 0, null, i32 384, i1 false, null, null, i32 0, metadata !104, i32 1518} ; [ DW_TAG_subprogram ]
!673 = metadata !{i32 786453, i32 0, metadata !"", i32 0, i32 0, i64 0, i64 0, i64 0, i32 0, null, metadata !674, i32 0, i32 0} ; [ DW_TAG_subroutine_type ]
!674 = metadata !{null, metadata !652, metadata !144}
!675 = metadata !{i32 786478, i32 0, metadata !631, metadata !"ap_int_base", metadata !"ap_int_base", metadata !"", metadata !92, i32 1519, metadata !676, i1 false, i1 false, i32 0, i32 0, null, i32 384, i1 false, null, null, i32 0, metadata !104, i32 1519} ; [ DW_TAG_subprogram ]
!676 = metadata !{i32 786453, i32 0, metadata !"", i32 0, i32 0, i64 0, i64 0, i64 0, i32 0, null, metadata !677, i32 0, i32 0} ; [ DW_TAG_subroutine_type ]
!677 = metadata !{null, metadata !652, metadata !148}
!678 = metadata !{i32 786478, i32 0, metadata !631, metadata !"ap_int_base", metadata !"ap_int_base", metadata !"", metadata !92, i32 1520, metadata !679, i1 false, i1 false, i32 0, i32 0, null, i32 384, i1 false, null, null, i32 0, metadata !104, i32 1520} ; [ DW_TAG_subprogram ]
!679 = metadata !{i32 786453, i32 0, metadata !"", i32 0, i32 0, i64 0, i64 0, i64 0, i32 0, null, metadata !680, i32 0, i32 0} ; [ DW_TAG_subroutine_type ]
!680 = metadata !{null, metadata !652, metadata !152}
!681 = metadata !{i32 786478, i32 0, metadata !631, metadata !"ap_int_base", metadata !"ap_int_base", metadata !"", metadata !92, i32 1521, metadata !682, i1 false, i1 false, i32 0, i32 0, null, i32 384, i1 false, null, null, i32 0, metadata !104, i32 1521} ; [ DW_TAG_subprogram ]
!682 = metadata !{i32 786453, i32 0, metadata !"", i32 0, i32 0, i64 0, i64 0, i64 0, i32 0, null, metadata !683, i32 0, i32 0} ; [ DW_TAG_subroutine_type ]
!683 = metadata !{null, metadata !652, metadata !113}
!684 = metadata !{i32 786478, i32 0, metadata !631, metadata !"ap_int_base", metadata !"ap_int_base", metadata !"", metadata !92, i32 1522, metadata !685, i1 false, i1 false, i32 0, i32 0, null, i32 384, i1 false, null, null, i32 0, metadata !104, i32 1522} ; [ DW_TAG_subprogram ]
!685 = metadata !{i32 786453, i32 0, metadata !"", i32 0, i32 0, i64 0, i64 0, i64 0, i32 0, null, metadata !686, i32 0, i32 0} ; [ DW_TAG_subroutine_type ]
!686 = metadata !{null, metadata !652, metadata !159}
!687 = metadata !{i32 786478, i32 0, metadata !631, metadata !"ap_int_base", metadata !"ap_int_base", metadata !"", metadata !92, i32 1523, metadata !688, i1 false, i1 false, i32 0, i32 0, null, i32 384, i1 false, null, null, i32 0, metadata !104, i32 1523} ; [ DW_TAG_subprogram ]
!688 = metadata !{i32 786453, i32 0, metadata !"", i32 0, i32 0, i64 0, i64 0, i64 0, i32 0, null, metadata !689, i32 0, i32 0} ; [ DW_TAG_subroutine_type ]
!689 = metadata !{null, metadata !652, metadata !163}
!690 = metadata !{i32 786478, i32 0, metadata !631, metadata !"ap_int_base", metadata !"ap_int_base", metadata !"", metadata !92, i32 1524, metadata !691, i1 false, i1 false, i32 0, i32 0, null, i32 384, i1 false, null, null, i32 0, metadata !104, i32 1524} ; [ DW_TAG_subprogram ]
!691 = metadata !{i32 786453, i32 0, metadata !"", i32 0, i32 0, i64 0, i64 0, i64 0, i32 0, null, metadata !692, i32 0, i32 0} ; [ DW_TAG_subroutine_type ]
!692 = metadata !{null, metadata !652, metadata !167}
!693 = metadata !{i32 786478, i32 0, metadata !631, metadata !"ap_int_base", metadata !"ap_int_base", metadata !"", metadata !92, i32 1525, metadata !694, i1 false, i1 false, i32 0, i32 0, null, i32 384, i1 false, null, null, i32 0, metadata !104, i32 1525} ; [ DW_TAG_subprogram ]
!694 = metadata !{i32 786453, i32 0, metadata !"", i32 0, i32 0, i64 0, i64 0, i64 0, i32 0, null, metadata !695, i32 0, i32 0} ; [ DW_TAG_subroutine_type ]
!695 = metadata !{null, metadata !652, metadata !171}
!696 = metadata !{i32 786478, i32 0, metadata !631, metadata !"ap_int_base", metadata !"ap_int_base", metadata !"", metadata !92, i32 1526, metadata !697, i1 false, i1 false, i32 0, i32 0, null, i32 384, i1 false, null, null, i32 0, metadata !104, i32 1526} ; [ DW_TAG_subprogram ]
!697 = metadata !{i32 786453, i32 0, metadata !"", i32 0, i32 0, i64 0, i64 0, i64 0, i32 0, null, metadata !698, i32 0, i32 0} ; [ DW_TAG_subroutine_type ]
!698 = metadata !{null, metadata !652, metadata !176}
!699 = metadata !{i32 786478, i32 0, metadata !631, metadata !"ap_int_base", metadata !"ap_int_base", metadata !"", metadata !92, i32 1527, metadata !700, i1 false, i1 false, i32 0, i32 0, null, i32 384, i1 false, null, null, i32 0, metadata !104, i32 1527} ; [ DW_TAG_subprogram ]
!700 = metadata !{i32 786453, i32 0, metadata !"", i32 0, i32 0, i64 0, i64 0, i64 0, i32 0, null, metadata !701, i32 0, i32 0} ; [ DW_TAG_subroutine_type ]
!701 = metadata !{null, metadata !652, metadata !181}
!702 = metadata !{i32 786478, i32 0, metadata !631, metadata !"ap_int_base", metadata !"ap_int_base", metadata !"", metadata !92, i32 1528, metadata !703, i1 false, i1 false, i32 0, i32 0, null, i32 384, i1 false, null, null, i32 0, metadata !104, i32 1528} ; [ DW_TAG_subprogram ]
!703 = metadata !{i32 786453, i32 0, metadata !"", i32 0, i32 0, i64 0, i64 0, i64 0, i32 0, null, metadata !704, i32 0, i32 0} ; [ DW_TAG_subroutine_type ]
!704 = metadata !{null, metadata !652, metadata !186}
!705 = metadata !{i32 786478, i32 0, metadata !631, metadata !"ap_int_base", metadata !"ap_int_base", metadata !"", metadata !92, i32 1529, metadata !706, i1 false, i1 false, i32 0, i32 0, null, i32 384, i1 false, null, null, i32 0, metadata !104, i32 1529} ; [ DW_TAG_subprogram ]
!706 = metadata !{i32 786453, i32 0, metadata !"", i32 0, i32 0, i64 0, i64 0, i64 0, i32 0, null, metadata !707, i32 0, i32 0} ; [ DW_TAG_subroutine_type ]
!707 = metadata !{null, metadata !652, metadata !190}
!708 = metadata !{i32 786478, i32 0, metadata !631, metadata !"ap_int_base", metadata !"ap_int_base", metadata !"", metadata !92, i32 1556, metadata !709, i1 false, i1 false, i32 0, i32 0, null, i32 256, i1 false, null, null, i32 0, metadata !104, i32 1556} ; [ DW_TAG_subprogram ]
!709 = metadata !{i32 786453, i32 0, metadata !"", i32 0, i32 0, i64 0, i64 0, i64 0, i32 0, null, metadata !710, i32 0, i32 0} ; [ DW_TAG_subroutine_type ]
!710 = metadata !{null, metadata !652, metadata !194}
!711 = metadata !{i32 786478, i32 0, metadata !631, metadata !"ap_int_base", metadata !"ap_int_base", metadata !"", metadata !92, i32 1563, metadata !712, i1 false, i1 false, i32 0, i32 0, null, i32 256, i1 false, null, null, i32 0, metadata !104, i32 1563} ; [ DW_TAG_subprogram ]
!712 = metadata !{i32 786453, i32 0, metadata !"", i32 0, i32 0, i64 0, i64 0, i64 0, i32 0, null, metadata !713, i32 0, i32 0} ; [ DW_TAG_subroutine_type ]
!713 = metadata !{null, metadata !652, metadata !194, metadata !140}
!714 = metadata !{i32 786478, i32 0, metadata !631, metadata !"read", metadata !"read", metadata !"_ZNV11ap_int_baseILi52ELb0ELb1EE4readEv", metadata !92, i32 1584, metadata !715, i1 false, i1 false, i32 0, i32 0, null, i32 256, i1 false, null, null, i32 0, metadata !104, i32 1584} ; [ DW_TAG_subprogram ]
!715 = metadata !{i32 786453, i32 0, metadata !"", i32 0, i32 0, i64 0, i64 0, i64 0, i32 0, null, metadata !716, i32 0, i32 0} ; [ DW_TAG_subroutine_type ]
!716 = metadata !{metadata !631, metadata !717}
!717 = metadata !{i32 786447, i32 0, metadata !"", i32 0, i32 0, i64 64, i64 64, i64 0, i32 64, metadata !665} ; [ DW_TAG_pointer_type ]
!718 = metadata !{i32 786478, i32 0, metadata !631, metadata !"write", metadata !"write", metadata !"_ZNV11ap_int_baseILi52ELb0ELb1EE5writeERKS0_", metadata !92, i32 1590, metadata !719, i1 false, i1 false, i32 0, i32 0, null, i32 256, i1 false, null, null, i32 0, metadata !104, i32 1590} ; [ DW_TAG_subprogram ]
!719 = metadata !{i32 786453, i32 0, metadata !"", i32 0, i32 0, i64 0, i64 0, i64 0, i32 0, null, metadata !720, i32 0, i32 0} ; [ DW_TAG_subroutine_type ]
!720 = metadata !{null, metadata !717, metadata !656}
!721 = metadata !{i32 786478, i32 0, metadata !631, metadata !"operator=", metadata !"operator=", metadata !"_ZNV11ap_int_baseILi52ELb0ELb1EEaSERVKS0_", metadata !92, i32 1602, metadata !722, i1 false, i1 false, i32 0, i32 0, null, i32 256, i1 false, null, null, i32 0, metadata !104, i32 1602} ; [ DW_TAG_subprogram ]
!722 = metadata !{i32 786453, i32 0, metadata !"", i32 0, i32 0, i64 0, i64 0, i64 0, i32 0, null, metadata !723, i32 0, i32 0} ; [ DW_TAG_subroutine_type ]
!723 = metadata !{null, metadata !717, metadata !663}
!724 = metadata !{i32 786478, i32 0, metadata !631, metadata !"operator=", metadata !"operator=", metadata !"_ZNV11ap_int_baseILi52ELb0ELb1EEaSERKS0_", metadata !92, i32 1611, metadata !719, i1 false, i1 false, i32 0, i32 0, null, i32 256, i1 false, null, null, i32 0, metadata !104, i32 1611} ; [ DW_TAG_subprogram ]
!725 = metadata !{i32 786478, i32 0, metadata !631, metadata !"operator=", metadata !"operator=", metadata !"_ZN11ap_int_baseILi52ELb0ELb1EEaSERVKS0_", metadata !92, i32 1634, metadata !726, i1 false, i1 false, i32 0, i32 0, null, i32 256, i1 false, null, null, i32 0, metadata !104, i32 1634} ; [ DW_TAG_subprogram ]
!726 = metadata !{i32 786453, i32 0, metadata !"", i32 0, i32 0, i64 0, i64 0, i64 0, i32 0, null, metadata !727, i32 0, i32 0} ; [ DW_TAG_subroutine_type ]
!727 = metadata !{metadata !630, metadata !652, metadata !663}
!728 = metadata !{i32 786478, i32 0, metadata !631, metadata !"operator=", metadata !"operator=", metadata !"_ZN11ap_int_baseILi52ELb0ELb1EEaSERKS0_", metadata !92, i32 1639, metadata !729, i1 false, i1 false, i32 0, i32 0, null, i32 256, i1 false, null, null, i32 0, metadata !104, i32 1639} ; [ DW_TAG_subprogram ]
!729 = metadata !{i32 786453, i32 0, metadata !"", i32 0, i32 0, i64 0, i64 0, i64 0, i32 0, null, metadata !730, i32 0, i32 0} ; [ DW_TAG_subroutine_type ]
!730 = metadata !{metadata !630, metadata !652, metadata !656}
!731 = metadata !{i32 786478, i32 0, metadata !631, metadata !"operator=", metadata !"operator=", metadata !"_ZN11ap_int_baseILi52ELb0ELb1EEaSEPKc", metadata !92, i32 1643, metadata !732, i1 false, i1 false, i32 0, i32 0, null, i32 256, i1 false, null, null, i32 0, metadata !104, i32 1643} ; [ DW_TAG_subprogram ]
!732 = metadata !{i32 786453, i32 0, metadata !"", i32 0, i32 0, i64 0, i64 0, i64 0, i32 0, null, metadata !733, i32 0, i32 0} ; [ DW_TAG_subroutine_type ]
!733 = metadata !{metadata !630, metadata !652, metadata !194}
!734 = metadata !{i32 786478, i32 0, metadata !631, metadata !"set", metadata !"set", metadata !"_ZN11ap_int_baseILi52ELb0ELb1EE3setEPKca", metadata !92, i32 1651, metadata !735, i1 false, i1 false, i32 0, i32 0, null, i32 256, i1 false, null, null, i32 0, metadata !104, i32 1651} ; [ DW_TAG_subprogram ]
!735 = metadata !{i32 786453, i32 0, metadata !"", i32 0, i32 0, i64 0, i64 0, i64 0, i32 0, null, metadata !736, i32 0, i32 0} ; [ DW_TAG_subroutine_type ]
!736 = metadata !{metadata !630, metadata !652, metadata !194, metadata !140}
!737 = metadata !{i32 786478, i32 0, metadata !631, metadata !"operator=", metadata !"operator=", metadata !"_ZN11ap_int_baseILi52ELb0ELb1EEaSEa", metadata !92, i32 1665, metadata !738, i1 false, i1 false, i32 0, i32 0, null, i32 256, i1 false, null, null, i32 0, metadata !104, i32 1665} ; [ DW_TAG_subprogram ]
!738 = metadata !{i32 786453, i32 0, metadata !"", i32 0, i32 0, i64 0, i64 0, i64 0, i32 0, null, metadata !739, i32 0, i32 0} ; [ DW_TAG_subroutine_type ]
!739 = metadata !{metadata !630, metadata !652, metadata !140}
!740 = metadata !{i32 786478, i32 0, metadata !631, metadata !"operator=", metadata !"operator=", metadata !"_ZN11ap_int_baseILi52ELb0ELb1EEaSEh", metadata !92, i32 1666, metadata !741, i1 false, i1 false, i32 0, i32 0, null, i32 256, i1 false, null, null, i32 0, metadata !104, i32 1666} ; [ DW_TAG_subprogram ]
!741 = metadata !{i32 786453, i32 0, metadata !"", i32 0, i32 0, i64 0, i64 0, i64 0, i32 0, null, metadata !742, i32 0, i32 0} ; [ DW_TAG_subroutine_type ]
!742 = metadata !{metadata !630, metadata !652, metadata !144}
!743 = metadata !{i32 786478, i32 0, metadata !631, metadata !"operator=", metadata !"operator=", metadata !"_ZN11ap_int_baseILi52ELb0ELb1EEaSEs", metadata !92, i32 1667, metadata !744, i1 false, i1 false, i32 0, i32 0, null, i32 256, i1 false, null, null, i32 0, metadata !104, i32 1667} ; [ DW_TAG_subprogram ]
!744 = metadata !{i32 786453, i32 0, metadata !"", i32 0, i32 0, i64 0, i64 0, i64 0, i32 0, null, metadata !745, i32 0, i32 0} ; [ DW_TAG_subroutine_type ]
!745 = metadata !{metadata !630, metadata !652, metadata !148}
!746 = metadata !{i32 786478, i32 0, metadata !631, metadata !"operator=", metadata !"operator=", metadata !"_ZN11ap_int_baseILi52ELb0ELb1EEaSEt", metadata !92, i32 1668, metadata !747, i1 false, i1 false, i32 0, i32 0, null, i32 256, i1 false, null, null, i32 0, metadata !104, i32 1668} ; [ DW_TAG_subprogram ]
!747 = metadata !{i32 786453, i32 0, metadata !"", i32 0, i32 0, i64 0, i64 0, i64 0, i32 0, null, metadata !748, i32 0, i32 0} ; [ DW_TAG_subroutine_type ]
!748 = metadata !{metadata !630, metadata !652, metadata !152}
!749 = metadata !{i32 786478, i32 0, metadata !631, metadata !"operator=", metadata !"operator=", metadata !"_ZN11ap_int_baseILi52ELb0ELb1EEaSEi", metadata !92, i32 1669, metadata !750, i1 false, i1 false, i32 0, i32 0, null, i32 256, i1 false, null, null, i32 0, metadata !104, i32 1669} ; [ DW_TAG_subprogram ]
!750 = metadata !{i32 786453, i32 0, metadata !"", i32 0, i32 0, i64 0, i64 0, i64 0, i32 0, null, metadata !751, i32 0, i32 0} ; [ DW_TAG_subroutine_type ]
!751 = metadata !{metadata !630, metadata !652, metadata !113}
!752 = metadata !{i32 786478, i32 0, metadata !631, metadata !"operator=", metadata !"operator=", metadata !"_ZN11ap_int_baseILi52ELb0ELb1EEaSEj", metadata !92, i32 1670, metadata !753, i1 false, i1 false, i32 0, i32 0, null, i32 256, i1 false, null, null, i32 0, metadata !104, i32 1670} ; [ DW_TAG_subprogram ]
!753 = metadata !{i32 786453, i32 0, metadata !"", i32 0, i32 0, i64 0, i64 0, i64 0, i32 0, null, metadata !754, i32 0, i32 0} ; [ DW_TAG_subroutine_type ]
!754 = metadata !{metadata !630, metadata !652, metadata !159}
!755 = metadata !{i32 786478, i32 0, metadata !631, metadata !"operator=", metadata !"operator=", metadata !"_ZN11ap_int_baseILi52ELb0ELb1EEaSEx", metadata !92, i32 1671, metadata !756, i1 false, i1 false, i32 0, i32 0, null, i32 256, i1 false, null, null, i32 0, metadata !104, i32 1671} ; [ DW_TAG_subprogram ]
!756 = metadata !{i32 786453, i32 0, metadata !"", i32 0, i32 0, i64 0, i64 0, i64 0, i32 0, null, metadata !757, i32 0, i32 0} ; [ DW_TAG_subroutine_type ]
!757 = metadata !{metadata !630, metadata !652, metadata !171}
!758 = metadata !{i32 786478, i32 0, metadata !631, metadata !"operator=", metadata !"operator=", metadata !"_ZN11ap_int_baseILi52ELb0ELb1EEaSEy", metadata !92, i32 1672, metadata !759, i1 false, i1 false, i32 0, i32 0, null, i32 256, i1 false, null, null, i32 0, metadata !104, i32 1672} ; [ DW_TAG_subprogram ]
!759 = metadata !{i32 786453, i32 0, metadata !"", i32 0, i32 0, i64 0, i64 0, i64 0, i32 0, null, metadata !760, i32 0, i32 0} ; [ DW_TAG_subroutine_type ]
!760 = metadata !{metadata !630, metadata !652, metadata !176}
!761 = metadata !{i32 786478, i32 0, metadata !631, metadata !"operator unsigned long long", metadata !"operator unsigned long long", metadata !"_ZNK11ap_int_baseILi52ELb0ELb1EEcvyEv", metadata !92, i32 1710, metadata !762, i1 false, i1 false, i32 0, i32 0, null, i32 256, i1 false, null, null, i32 0, metadata !104, i32 1710} ; [ DW_TAG_subprogram ]
!762 = metadata !{i32 786453, i32 0, metadata !"", i32 0, i32 0, i64 0, i64 0, i64 0, i32 0, null, metadata !763, i32 0, i32 0} ; [ DW_TAG_subroutine_type ]
!763 = metadata !{metadata !764, metadata !769}
!764 = metadata !{i32 786454, metadata !631, metadata !"RetType", metadata !92, i32 1458, i64 0, i64 0, i64 0, i32 0, metadata !765} ; [ DW_TAG_typedef ]
!765 = metadata !{i32 786454, metadata !766, metadata !"Type", metadata !92, i32 1419, i64 0, i64 0, i64 0, i32 0, metadata !176} ; [ DW_TAG_typedef ]
!766 = metadata !{i32 786434, null, metadata !"retval<7, false>", metadata !92, i32 1418, i64 8, i64 8, i32 0, i32 0, null, metadata !254, i32 0, null, metadata !767} ; [ DW_TAG_class_type ]
!767 = metadata !{metadata !768, metadata !114}
!768 = metadata !{i32 786480, null, metadata !"_AP_N", metadata !113, i64 7, null, i32 0, i32 0} ; [ DW_TAG_template_value_parameter ]
!769 = metadata !{i32 786447, i32 0, metadata !"", i32 0, i32 0, i64 64, i64 64, i64 0, i32 64, metadata !657} ; [ DW_TAG_pointer_type ]
!770 = metadata !{i32 786478, i32 0, metadata !631, metadata !"to_bool", metadata !"to_bool", metadata !"_ZNK11ap_int_baseILi52ELb0ELb1EE7to_boolEv", metadata !92, i32 1716, metadata !771, i1 false, i1 false, i32 0, i32 0, null, i32 256, i1 false, null, null, i32 0, metadata !104, i32 1716} ; [ DW_TAG_subprogram ]
!771 = metadata !{i32 786453, i32 0, metadata !"", i32 0, i32 0, i64 0, i64 0, i64 0, i32 0, null, metadata !772, i32 0, i32 0} ; [ DW_TAG_subroutine_type ]
!772 = metadata !{metadata !115, metadata !769}
!773 = metadata !{i32 786478, i32 0, metadata !631, metadata !"to_uchar", metadata !"to_uchar", metadata !"_ZNK11ap_int_baseILi52ELb0ELb1EE8to_ucharEv", metadata !92, i32 1717, metadata !774, i1 false, i1 false, i32 0, i32 0, null, i32 256, i1 false, null, null, i32 0, metadata !104, i32 1717} ; [ DW_TAG_subprogram ]
!774 = metadata !{i32 786453, i32 0, metadata !"", i32 0, i32 0, i64 0, i64 0, i64 0, i32 0, null, metadata !775, i32 0, i32 0} ; [ DW_TAG_subroutine_type ]
!775 = metadata !{metadata !144, metadata !769}
!776 = metadata !{i32 786478, i32 0, metadata !631, metadata !"to_char", metadata !"to_char", metadata !"_ZNK11ap_int_baseILi52ELb0ELb1EE7to_charEv", metadata !92, i32 1718, metadata !777, i1 false, i1 false, i32 0, i32 0, null, i32 256, i1 false, null, null, i32 0, metadata !104, i32 1718} ; [ DW_TAG_subprogram ]
!777 = metadata !{i32 786453, i32 0, metadata !"", i32 0, i32 0, i64 0, i64 0, i64 0, i32 0, null, metadata !778, i32 0, i32 0} ; [ DW_TAG_subroutine_type ]
!778 = metadata !{metadata !140, metadata !769}
!779 = metadata !{i32 786478, i32 0, metadata !631, metadata !"to_ushort", metadata !"to_ushort", metadata !"_ZNK11ap_int_baseILi52ELb0ELb1EE9to_ushortEv", metadata !92, i32 1719, metadata !780, i1 false, i1 false, i32 0, i32 0, null, i32 256, i1 false, null, null, i32 0, metadata !104, i32 1719} ; [ DW_TAG_subprogram ]
!780 = metadata !{i32 786453, i32 0, metadata !"", i32 0, i32 0, i64 0, i64 0, i64 0, i32 0, null, metadata !781, i32 0, i32 0} ; [ DW_TAG_subroutine_type ]
!781 = metadata !{metadata !152, metadata !769}
!782 = metadata !{i32 786478, i32 0, metadata !631, metadata !"to_short", metadata !"to_short", metadata !"_ZNK11ap_int_baseILi52ELb0ELb1EE8to_shortEv", metadata !92, i32 1720, metadata !783, i1 false, i1 false, i32 0, i32 0, null, i32 256, i1 false, null, null, i32 0, metadata !104, i32 1720} ; [ DW_TAG_subprogram ]
!783 = metadata !{i32 786453, i32 0, metadata !"", i32 0, i32 0, i64 0, i64 0, i64 0, i32 0, null, metadata !784, i32 0, i32 0} ; [ DW_TAG_subroutine_type ]
!784 = metadata !{metadata !148, metadata !769}
!785 = metadata !{i32 786478, i32 0, metadata !631, metadata !"to_int", metadata !"to_int", metadata !"_ZNK11ap_int_baseILi52ELb0ELb1EE6to_intEv", metadata !92, i32 1721, metadata !786, i1 false, i1 false, i32 0, i32 0, null, i32 256, i1 false, null, null, i32 0, metadata !104, i32 1721} ; [ DW_TAG_subprogram ]
!786 = metadata !{i32 786453, i32 0, metadata !"", i32 0, i32 0, i64 0, i64 0, i64 0, i32 0, null, metadata !787, i32 0, i32 0} ; [ DW_TAG_subroutine_type ]
!787 = metadata !{metadata !113, metadata !769}
!788 = metadata !{i32 786478, i32 0, metadata !631, metadata !"to_uint", metadata !"to_uint", metadata !"_ZNK11ap_int_baseILi52ELb0ELb1EE7to_uintEv", metadata !92, i32 1722, metadata !789, i1 false, i1 false, i32 0, i32 0, null, i32 256, i1 false, null, null, i32 0, metadata !104, i32 1722} ; [ DW_TAG_subprogram ]
!789 = metadata !{i32 786453, i32 0, metadata !"", i32 0, i32 0, i64 0, i64 0, i64 0, i32 0, null, metadata !790, i32 0, i32 0} ; [ DW_TAG_subroutine_type ]
!790 = metadata !{metadata !159, metadata !769}
!791 = metadata !{i32 786478, i32 0, metadata !631, metadata !"to_long", metadata !"to_long", metadata !"_ZNK11ap_int_baseILi52ELb0ELb1EE7to_longEv", metadata !92, i32 1723, metadata !792, i1 false, i1 false, i32 0, i32 0, null, i32 256, i1 false, null, null, i32 0, metadata !104, i32 1723} ; [ DW_TAG_subprogram ]
!792 = metadata !{i32 786453, i32 0, metadata !"", i32 0, i32 0, i64 0, i64 0, i64 0, i32 0, null, metadata !793, i32 0, i32 0} ; [ DW_TAG_subroutine_type ]
!793 = metadata !{metadata !163, metadata !769}
!794 = metadata !{i32 786478, i32 0, metadata !631, metadata !"to_ulong", metadata !"to_ulong", metadata !"_ZNK11ap_int_baseILi52ELb0ELb1EE8to_ulongEv", metadata !92, i32 1724, metadata !795, i1 false, i1 false, i32 0, i32 0, null, i32 256, i1 false, null, null, i32 0, metadata !104, i32 1724} ; [ DW_TAG_subprogram ]
!795 = metadata !{i32 786453, i32 0, metadata !"", i32 0, i32 0, i64 0, i64 0, i64 0, i32 0, null, metadata !796, i32 0, i32 0} ; [ DW_TAG_subroutine_type ]
!796 = metadata !{metadata !167, metadata !769}
!797 = metadata !{i32 786478, i32 0, metadata !631, metadata !"to_int64", metadata !"to_int64", metadata !"_ZNK11ap_int_baseILi52ELb0ELb1EE8to_int64Ev", metadata !92, i32 1725, metadata !798, i1 false, i1 false, i32 0, i32 0, null, i32 256, i1 false, null, null, i32 0, metadata !104, i32 1725} ; [ DW_TAG_subprogram ]
!798 = metadata !{i32 786453, i32 0, metadata !"", i32 0, i32 0, i64 0, i64 0, i64 0, i32 0, null, metadata !799, i32 0, i32 0} ; [ DW_TAG_subroutine_type ]
!799 = metadata !{metadata !171, metadata !769}
!800 = metadata !{i32 786478, i32 0, metadata !631, metadata !"to_uint64", metadata !"to_uint64", metadata !"_ZNK11ap_int_baseILi52ELb0ELb1EE9to_uint64Ev", metadata !92, i32 1726, metadata !801, i1 false, i1 false, i32 0, i32 0, null, i32 256, i1 false, null, null, i32 0, metadata !104, i32 1726} ; [ DW_TAG_subprogram ]
!801 = metadata !{i32 786453, i32 0, metadata !"", i32 0, i32 0, i64 0, i64 0, i64 0, i32 0, null, metadata !802, i32 0, i32 0} ; [ DW_TAG_subroutine_type ]
!802 = metadata !{metadata !176, metadata !769}
!803 = metadata !{i32 786478, i32 0, metadata !631, metadata !"to_double", metadata !"to_double", metadata !"_ZNK11ap_int_baseILi52ELb0ELb1EE9to_doubleEv", metadata !92, i32 1727, metadata !804, i1 false, i1 false, i32 0, i32 0, null, i32 256, i1 false, null, null, i32 0, metadata !104, i32 1727} ; [ DW_TAG_subprogram ]
!804 = metadata !{i32 786453, i32 0, metadata !"", i32 0, i32 0, i64 0, i64 0, i64 0, i32 0, null, metadata !805, i32 0, i32 0} ; [ DW_TAG_subroutine_type ]
!805 = metadata !{metadata !190, metadata !769}
!806 = metadata !{i32 786478, i32 0, metadata !631, metadata !"length", metadata !"length", metadata !"_ZNK11ap_int_baseILi52ELb0ELb1EE6lengthEv", metadata !92, i32 1741, metadata !786, i1 false, i1 false, i32 0, i32 0, null, i32 256, i1 false, null, null, i32 0, metadata !104, i32 1741} ; [ DW_TAG_subprogram ]
!807 = metadata !{i32 786478, i32 0, metadata !631, metadata !"length", metadata !"length", metadata !"_ZNVK11ap_int_baseILi52ELb0ELb1EE6lengthEv", metadata !92, i32 1742, metadata !808, i1 false, i1 false, i32 0, i32 0, null, i32 256, i1 false, null, null, i32 0, metadata !104, i32 1742} ; [ DW_TAG_subprogram ]
!808 = metadata !{i32 786453, i32 0, metadata !"", i32 0, i32 0, i64 0, i64 0, i64 0, i32 0, null, metadata !809, i32 0, i32 0} ; [ DW_TAG_subroutine_type ]
!809 = metadata !{metadata !113, metadata !810}
!810 = metadata !{i32 786447, i32 0, metadata !"", i32 0, i32 0, i64 64, i64 64, i64 0, i32 64, metadata !664} ; [ DW_TAG_pointer_type ]
!811 = metadata !{i32 786478, i32 0, metadata !631, metadata !"reverse", metadata !"reverse", metadata !"_ZN11ap_int_baseILi52ELb0ELb1EE7reverseEv", metadata !92, i32 1747, metadata !812, i1 false, i1 false, i32 0, i32 0, null, i32 256, i1 false, null, null, i32 0, metadata !104, i32 1747} ; [ DW_TAG_subprogram ]
!812 = metadata !{i32 786453, i32 0, metadata !"", i32 0, i32 0, i64 0, i64 0, i64 0, i32 0, null, metadata !813, i32 0, i32 0} ; [ DW_TAG_subroutine_type ]
!813 = metadata !{metadata !630, metadata !652}
!814 = metadata !{i32 786478, i32 0, metadata !631, metadata !"iszero", metadata !"iszero", metadata !"_ZNK11ap_int_baseILi52ELb0ELb1EE6iszeroEv", metadata !92, i32 1753, metadata !771, i1 false, i1 false, i32 0, i32 0, null, i32 256, i1 false, null, null, i32 0, metadata !104, i32 1753} ; [ DW_TAG_subprogram ]
!815 = metadata !{i32 786478, i32 0, metadata !631, metadata !"is_zero", metadata !"is_zero", metadata !"_ZNK11ap_int_baseILi52ELb0ELb1EE7is_zeroEv", metadata !92, i32 1758, metadata !771, i1 false, i1 false, i32 0, i32 0, null, i32 256, i1 false, null, null, i32 0, metadata !104, i32 1758} ; [ DW_TAG_subprogram ]
!816 = metadata !{i32 786478, i32 0, metadata !631, metadata !"sign", metadata !"sign", metadata !"_ZNK11ap_int_baseILi52ELb0ELb1EE4signEv", metadata !92, i32 1763, metadata !771, i1 false, i1 false, i32 0, i32 0, null, i32 256, i1 false, null, null, i32 0, metadata !104, i32 1763} ; [ DW_TAG_subprogram ]
!817 = metadata !{i32 786478, i32 0, metadata !631, metadata !"clear", metadata !"clear", metadata !"_ZN11ap_int_baseILi52ELb0ELb1EE5clearEi", metadata !92, i32 1771, metadata !682, i1 false, i1 false, i32 0, i32 0, null, i32 256, i1 false, null, null, i32 0, metadata !104, i32 1771} ; [ DW_TAG_subprogram ]
!818 = metadata !{i32 786478, i32 0, metadata !631, metadata !"invert", metadata !"invert", metadata !"_ZN11ap_int_baseILi52ELb0ELb1EE6invertEi", metadata !92, i32 1777, metadata !682, i1 false, i1 false, i32 0, i32 0, null, i32 256, i1 false, null, null, i32 0, metadata !104, i32 1777} ; [ DW_TAG_subprogram ]
!819 = metadata !{i32 786478, i32 0, metadata !631, metadata !"test", metadata !"test", metadata !"_ZNK11ap_int_baseILi52ELb0ELb1EE4testEi", metadata !92, i32 1785, metadata !820, i1 false, i1 false, i32 0, i32 0, null, i32 256, i1 false, null, null, i32 0, metadata !104, i32 1785} ; [ DW_TAG_subprogram ]
!820 = metadata !{i32 786453, i32 0, metadata !"", i32 0, i32 0, i64 0, i64 0, i64 0, i32 0, null, metadata !821, i32 0, i32 0} ; [ DW_TAG_subroutine_type ]
!821 = metadata !{metadata !115, metadata !769, metadata !113}
!822 = metadata !{i32 786478, i32 0, metadata !631, metadata !"set", metadata !"set", metadata !"_ZN11ap_int_baseILi52ELb0ELb1EE3setEi", metadata !92, i32 1791, metadata !682, i1 false, i1 false, i32 0, i32 0, null, i32 256, i1 false, null, null, i32 0, metadata !104, i32 1791} ; [ DW_TAG_subprogram ]
!823 = metadata !{i32 786478, i32 0, metadata !631, metadata !"set", metadata !"set", metadata !"_ZN11ap_int_baseILi52ELb0ELb1EE3setEib", metadata !92, i32 1797, metadata !824, i1 false, i1 false, i32 0, i32 0, null, i32 256, i1 false, null, null, i32 0, metadata !104, i32 1797} ; [ DW_TAG_subprogram ]
!824 = metadata !{i32 786453, i32 0, metadata !"", i32 0, i32 0, i64 0, i64 0, i64 0, i32 0, null, metadata !825, i32 0, i32 0} ; [ DW_TAG_subroutine_type ]
!825 = metadata !{null, metadata !652, metadata !113, metadata !115}
!826 = metadata !{i32 786478, i32 0, metadata !631, metadata !"lrotate", metadata !"lrotate", metadata !"_ZN11ap_int_baseILi52ELb0ELb1EE7lrotateEi", metadata !92, i32 1804, metadata !682, i1 false, i1 false, i32 0, i32 0, null, i32 256, i1 false, null, null, i32 0, metadata !104, i32 1804} ; [ DW_TAG_subprogram ]
!827 = metadata !{i32 786478, i32 0, metadata !631, metadata !"rrotate", metadata !"rrotate", metadata !"_ZN11ap_int_baseILi52ELb0ELb1EE7rrotateEi", metadata !92, i32 1813, metadata !682, i1 false, i1 false, i32 0, i32 0, null, i32 256, i1 false, null, null, i32 0, metadata !104, i32 1813} ; [ DW_TAG_subprogram ]
!828 = metadata !{i32 786478, i32 0, metadata !631, metadata !"set_bit", metadata !"set_bit", metadata !"_ZN11ap_int_baseILi52ELb0ELb1EE7set_bitEib", metadata !92, i32 1821, metadata !824, i1 false, i1 false, i32 0, i32 0, null, i32 256, i1 false, null, null, i32 0, metadata !104, i32 1821} ; [ DW_TAG_subprogram ]
!829 = metadata !{i32 786478, i32 0, metadata !631, metadata !"get_bit", metadata !"get_bit", metadata !"_ZNK11ap_int_baseILi52ELb0ELb1EE7get_bitEi", metadata !92, i32 1826, metadata !820, i1 false, i1 false, i32 0, i32 0, null, i32 256, i1 false, null, null, i32 0, metadata !104, i32 1826} ; [ DW_TAG_subprogram ]
!830 = metadata !{i32 786478, i32 0, metadata !631, metadata !"b_not", metadata !"b_not", metadata !"_ZN11ap_int_baseILi52ELb0ELb1EE5b_notEv", metadata !92, i32 1831, metadata !650, i1 false, i1 false, i32 0, i32 0, null, i32 256, i1 false, null, null, i32 0, metadata !104, i32 1831} ; [ DW_TAG_subprogram ]
!831 = metadata !{i32 786478, i32 0, metadata !631, metadata !"countLeadingZeros", metadata !"countLeadingZeros", metadata !"_ZN11ap_int_baseILi52ELb0ELb1EE17countLeadingZerosEv", metadata !92, i32 1838, metadata !832, i1 false, i1 false, i32 0, i32 0, null, i32 256, i1 false, null, null, i32 0, metadata !104, i32 1838} ; [ DW_TAG_subprogram ]
!832 = metadata !{i32 786453, i32 0, metadata !"", i32 0, i32 0, i64 0, i64 0, i64 0, i32 0, null, metadata !833, i32 0, i32 0} ; [ DW_TAG_subroutine_type ]
!833 = metadata !{metadata !113, metadata !652}
!834 = metadata !{i32 786478, i32 0, metadata !631, metadata !"operator++", metadata !"operator++", metadata !"_ZN11ap_int_baseILi52ELb0ELb1EEppEv", metadata !92, i32 1895, metadata !812, i1 false, i1 false, i32 0, i32 0, null, i32 256, i1 false, null, null, i32 0, metadata !104, i32 1895} ; [ DW_TAG_subprogram ]
!835 = metadata !{i32 786478, i32 0, metadata !631, metadata !"operator--", metadata !"operator--", metadata !"_ZN11ap_int_baseILi52ELb0ELb1EEmmEv", metadata !92, i32 1899, metadata !812, i1 false, i1 false, i32 0, i32 0, null, i32 256, i1 false, null, null, i32 0, metadata !104, i32 1899} ; [ DW_TAG_subprogram ]
!836 = metadata !{i32 786478, i32 0, metadata !631, metadata !"operator++", metadata !"operator++", metadata !"_ZN11ap_int_baseILi52ELb0ELb1EEppEi", metadata !92, i32 1907, metadata !837, i1 false, i1 false, i32 0, i32 0, null, i32 256, i1 false, null, null, i32 0, metadata !104, i32 1907} ; [ DW_TAG_subprogram ]
!837 = metadata !{i32 786453, i32 0, metadata !"", i32 0, i32 0, i64 0, i64 0, i64 0, i32 0, null, metadata !838, i32 0, i32 0} ; [ DW_TAG_subroutine_type ]
!838 = metadata !{metadata !657, metadata !652, metadata !113}
!839 = metadata !{i32 786478, i32 0, metadata !631, metadata !"operator--", metadata !"operator--", metadata !"_ZN11ap_int_baseILi52ELb0ELb1EEmmEi", metadata !92, i32 1912, metadata !837, i1 false, i1 false, i32 0, i32 0, null, i32 256, i1 false, null, null, i32 0, metadata !104, i32 1912} ; [ DW_TAG_subprogram ]
!840 = metadata !{i32 786478, i32 0, metadata !631, metadata !"operator+", metadata !"operator+", metadata !"_ZNK11ap_int_baseILi52ELb0ELb1EEpsEv", metadata !92, i32 1921, metadata !841, i1 false, i1 false, i32 0, i32 0, null, i32 256, i1 false, null, null, i32 0, metadata !104, i32 1921} ; [ DW_TAG_subprogram ]
!841 = metadata !{i32 786453, i32 0, metadata !"", i32 0, i32 0, i64 0, i64 0, i64 0, i32 0, null, metadata !842, i32 0, i32 0} ; [ DW_TAG_subroutine_type ]
!842 = metadata !{metadata !631, metadata !769}
!843 = metadata !{i32 786478, i32 0, metadata !631, metadata !"operator!", metadata !"operator!", metadata !"_ZNK11ap_int_baseILi52ELb0ELb1EEntEv", metadata !92, i32 1927, metadata !771, i1 false, i1 false, i32 0, i32 0, null, i32 256, i1 false, null, null, i32 0, metadata !104, i32 1927} ; [ DW_TAG_subprogram ]
!844 = metadata !{i32 786478, i32 0, metadata !631, metadata !"operator-", metadata !"operator-", metadata !"_ZNK11ap_int_baseILi52ELb0ELb1EEngEv", metadata !92, i32 1932, metadata !845, i1 false, i1 false, i32 0, i32 0, null, i32 256, i1 false, null, null, i32 0, metadata !104, i32 1932} ; [ DW_TAG_subprogram ]
!845 = metadata !{i32 786453, i32 0, metadata !"", i32 0, i32 0, i64 0, i64 0, i64 0, i32 0, null, metadata !846, i32 0, i32 0} ; [ DW_TAG_subroutine_type ]
!846 = metadata !{metadata !847, metadata !769}
!847 = metadata !{i32 786434, null, metadata !"ap_int_base<53, true, true>", metadata !92, i32 651, i32 0, i32 0, i32 0, i32 4, null, null, i32 0} ; [ DW_TAG_class_type ]
!848 = metadata !{i32 786478, i32 0, metadata !631, metadata !"range", metadata !"range", metadata !"_ZN11ap_int_baseILi52ELb0ELb1EE5rangeEii", metadata !92, i32 2062, metadata !849, i1 false, i1 false, i32 0, i32 0, null, i32 256, i1 false, null, null, i32 0, metadata !104, i32 2062} ; [ DW_TAG_subprogram ]
!849 = metadata !{i32 786453, i32 0, metadata !"", i32 0, i32 0, i64 0, i64 0, i64 0, i32 0, null, metadata !850, i32 0, i32 0} ; [ DW_TAG_subroutine_type ]
!850 = metadata !{metadata !627, metadata !652, metadata !113, metadata !113}
!851 = metadata !{i32 786478, i32 0, metadata !631, metadata !"operator()", metadata !"operator()", metadata !"_ZN11ap_int_baseILi52ELb0ELb1EEclEii", metadata !92, i32 2068, metadata !849, i1 false, i1 false, i32 0, i32 0, null, i32 256, i1 false, null, null, i32 0, metadata !104, i32 2068} ; [ DW_TAG_subprogram ]
!852 = metadata !{i32 786478, i32 0, metadata !631, metadata !"range", metadata !"range", metadata !"_ZNK11ap_int_baseILi52ELb0ELb1EE5rangeEii", metadata !92, i32 2074, metadata !853, i1 false, i1 false, i32 0, i32 0, null, i32 256, i1 false, null, null, i32 0, metadata !104, i32 2074} ; [ DW_TAG_subprogram ]
!853 = metadata !{i32 786453, i32 0, metadata !"", i32 0, i32 0, i64 0, i64 0, i64 0, i32 0, null, metadata !854, i32 0, i32 0} ; [ DW_TAG_subroutine_type ]
!854 = metadata !{metadata !627, metadata !769, metadata !113, metadata !113}
!855 = metadata !{i32 786478, i32 0, metadata !631, metadata !"operator()", metadata !"operator()", metadata !"_ZNK11ap_int_baseILi52ELb0ELb1EEclEii", metadata !92, i32 2080, metadata !853, i1 false, i1 false, i32 0, i32 0, null, i32 256, i1 false, null, null, i32 0, metadata !104, i32 2080} ; [ DW_TAG_subprogram ]
!856 = metadata !{i32 786478, i32 0, metadata !631, metadata !"operator[]", metadata !"operator[]", metadata !"_ZN11ap_int_baseILi52ELb0ELb1EEixEi", metadata !92, i32 2099, metadata !857, i1 false, i1 false, i32 0, i32 0, null, i32 256, i1 false, null, null, i32 0, metadata !104, i32 2099} ; [ DW_TAG_subprogram ]
!857 = metadata !{i32 786453, i32 0, metadata !"", i32 0, i32 0, i64 0, i64 0, i64 0, i32 0, null, metadata !858, i32 0, i32 0} ; [ DW_TAG_subroutine_type ]
!858 = metadata !{metadata !859, metadata !652, metadata !113}
!859 = metadata !{i32 786434, null, metadata !"ap_bit_ref<52, false>", metadata !92, i32 1249, i32 0, i32 0, i32 0, i32 4, null, null, i32 0} ; [ DW_TAG_class_type ]
!860 = metadata !{i32 786478, i32 0, metadata !631, metadata !"operator[]", metadata !"operator[]", metadata !"_ZNK11ap_int_baseILi52ELb0ELb1EEixEi", metadata !92, i32 2113, metadata !820, i1 false, i1 false, i32 0, i32 0, null, i32 256, i1 false, null, null, i32 0, metadata !104, i32 2113} ; [ DW_TAG_subprogram ]
!861 = metadata !{i32 786478, i32 0, metadata !631, metadata !"bit", metadata !"bit", metadata !"_ZN11ap_int_baseILi52ELb0ELb1EE3bitEi", metadata !92, i32 2127, metadata !857, i1 false, i1 false, i32 0, i32 0, null, i32 256, i1 false, null, null, i32 0, metadata !104, i32 2127} ; [ DW_TAG_subprogram ]
!862 = metadata !{i32 786478, i32 0, metadata !631, metadata !"bit", metadata !"bit", metadata !"_ZNK11ap_int_baseILi52ELb0ELb1EE3bitEi", metadata !92, i32 2141, metadata !820, i1 false, i1 false, i32 0, i32 0, null, i32 256, i1 false, null, null, i32 0, metadata !104, i32 2141} ; [ DW_TAG_subprogram ]
!863 = metadata !{i32 786478, i32 0, metadata !631, metadata !"and_reduce", metadata !"and_reduce", metadata !"_ZN11ap_int_baseILi52ELb0ELb1EE10and_reduceEv", metadata !92, i32 2321, metadata !864, i1 false, i1 false, i32 0, i32 0, null, i32 256, i1 false, null, null, i32 0, metadata !104, i32 2321} ; [ DW_TAG_subprogram ]
!864 = metadata !{i32 786453, i32 0, metadata !"", i32 0, i32 0, i64 0, i64 0, i64 0, i32 0, null, metadata !865, i32 0, i32 0} ; [ DW_TAG_subroutine_type ]
!865 = metadata !{metadata !115, metadata !652}
!866 = metadata !{i32 786478, i32 0, metadata !631, metadata !"nand_reduce", metadata !"nand_reduce", metadata !"_ZN11ap_int_baseILi52ELb0ELb1EE11nand_reduceEv", metadata !92, i32 2324, metadata !864, i1 false, i1 false, i32 0, i32 0, null, i32 256, i1 false, null, null, i32 0, metadata !104, i32 2324} ; [ DW_TAG_subprogram ]
!867 = metadata !{i32 786478, i32 0, metadata !631, metadata !"or_reduce", metadata !"or_reduce", metadata !"_ZN11ap_int_baseILi52ELb0ELb1EE9or_reduceEv", metadata !92, i32 2327, metadata !864, i1 false, i1 false, i32 0, i32 0, null, i32 256, i1 false, null, null, i32 0, metadata !104, i32 2327} ; [ DW_TAG_subprogram ]
!868 = metadata !{i32 786478, i32 0, metadata !631, metadata !"nor_reduce", metadata !"nor_reduce", metadata !"_ZN11ap_int_baseILi52ELb0ELb1EE10nor_reduceEv", metadata !92, i32 2330, metadata !864, i1 false, i1 false, i32 0, i32 0, null, i32 256, i1 false, null, null, i32 0, metadata !104, i32 2330} ; [ DW_TAG_subprogram ]
!869 = metadata !{i32 786478, i32 0, metadata !631, metadata !"xor_reduce", metadata !"xor_reduce", metadata !"_ZN11ap_int_baseILi52ELb0ELb1EE10xor_reduceEv", metadata !92, i32 2333, metadata !864, i1 false, i1 false, i32 0, i32 0, null, i32 256, i1 false, null, null, i32 0, metadata !104, i32 2333} ; [ DW_TAG_subprogram ]
!870 = metadata !{i32 786478, i32 0, metadata !631, metadata !"xnor_reduce", metadata !"xnor_reduce", metadata !"_ZN11ap_int_baseILi52ELb0ELb1EE11xnor_reduceEv", metadata !92, i32 2336, metadata !864, i1 false, i1 false, i32 0, i32 0, null, i32 256, i1 false, null, null, i32 0, metadata !104, i32 2336} ; [ DW_TAG_subprogram ]
!871 = metadata !{i32 786478, i32 0, metadata !631, metadata !"and_reduce", metadata !"and_reduce", metadata !"_ZNK11ap_int_baseILi52ELb0ELb1EE10and_reduceEv", metadata !92, i32 2340, metadata !771, i1 false, i1 false, i32 0, i32 0, null, i32 256, i1 false, null, null, i32 0, metadata !104, i32 2340} ; [ DW_TAG_subprogram ]
!872 = metadata !{i32 786478, i32 0, metadata !631, metadata !"nand_reduce", metadata !"nand_reduce", metadata !"_ZNK11ap_int_baseILi52ELb0ELb1EE11nand_reduceEv", metadata !92, i32 2343, metadata !771, i1 false, i1 false, i32 0, i32 0, null, i32 256, i1 false, null, null, i32 0, metadata !104, i32 2343} ; [ DW_TAG_subprogram ]
!873 = metadata !{i32 786478, i32 0, metadata !631, metadata !"or_reduce", metadata !"or_reduce", metadata !"_ZNK11ap_int_baseILi52ELb0ELb1EE9or_reduceEv", metadata !92, i32 2346, metadata !771, i1 false, i1 false, i32 0, i32 0, null, i32 256, i1 false, null, null, i32 0, metadata !104, i32 2346} ; [ DW_TAG_subprogram ]
!874 = metadata !{i32 786478, i32 0, metadata !631, metadata !"nor_reduce", metadata !"nor_reduce", metadata !"_ZNK11ap_int_baseILi52ELb0ELb1EE10nor_reduceEv", metadata !92, i32 2349, metadata !771, i1 false, i1 false, i32 0, i32 0, null, i32 256, i1 false, null, null, i32 0, metadata !104, i32 2349} ; [ DW_TAG_subprogram ]
!875 = metadata !{i32 786478, i32 0, metadata !631, metadata !"xor_reduce", metadata !"xor_reduce", metadata !"_ZNK11ap_int_baseILi52ELb0ELb1EE10xor_reduceEv", metadata !92, i32 2352, metadata !771, i1 false, i1 false, i32 0, i32 0, null, i32 256, i1 false, null, null, i32 0, metadata !104, i32 2352} ; [ DW_TAG_subprogram ]
!876 = metadata !{i32 786478, i32 0, metadata !631, metadata !"xnor_reduce", metadata !"xnor_reduce", metadata !"_ZNK11ap_int_baseILi52ELb0ELb1EE11xnor_reduceEv", metadata !92, i32 2355, metadata !771, i1 false, i1 false, i32 0, i32 0, null, i32 256, i1 false, null, null, i32 0, metadata !104, i32 2355} ; [ DW_TAG_subprogram ]
!877 = metadata !{i32 786478, i32 0, metadata !631, metadata !"to_string", metadata !"to_string", metadata !"_ZNK11ap_int_baseILi52ELb0ELb1EE9to_stringEPci8BaseModeb", metadata !92, i32 2362, metadata !878, i1 false, i1 false, i32 0, i32 0, null, i32 256, i1 false, null, null, i32 0, metadata !104, i32 2362} ; [ DW_TAG_subprogram ]
!878 = metadata !{i32 786453, i32 0, metadata !"", i32 0, i32 0, i64 0, i64 0, i64 0, i32 0, null, metadata !879, i32 0, i32 0} ; [ DW_TAG_subroutine_type ]
!879 = metadata !{null, metadata !769, metadata !577, metadata !113, metadata !578, metadata !115}
!880 = metadata !{i32 786478, i32 0, metadata !631, metadata !"to_string", metadata !"to_string", metadata !"_ZNK11ap_int_baseILi52ELb0ELb1EE9to_stringE8BaseModeb", metadata !92, i32 2389, metadata !881, i1 false, i1 false, i32 0, i32 0, null, i32 256, i1 false, null, null, i32 0, metadata !104, i32 2389} ; [ DW_TAG_subprogram ]
!881 = metadata !{i32 786453, i32 0, metadata !"", i32 0, i32 0, i64 0, i64 0, i64 0, i32 0, null, metadata !882, i32 0, i32 0} ; [ DW_TAG_subroutine_type ]
!882 = metadata !{metadata !577, metadata !769, metadata !578, metadata !115}
!883 = metadata !{i32 786478, i32 0, metadata !631, metadata !"to_string", metadata !"to_string", metadata !"_ZNK11ap_int_baseILi52ELb0ELb1EE9to_stringEab", metadata !92, i32 2393, metadata !884, i1 false, i1 false, i32 0, i32 0, null, i32 256, i1 false, null, null, i32 0, metadata !104, i32 2393} ; [ DW_TAG_subprogram ]
!884 = metadata !{i32 786453, i32 0, metadata !"", i32 0, i32 0, i64 0, i64 0, i64 0, i32 0, null, metadata !885, i32 0, i32 0} ; [ DW_TAG_subroutine_type ]
!885 = metadata !{metadata !577, metadata !769, metadata !140, metadata !115}
!886 = metadata !{metadata !887, metadata !114, metadata !592}
!887 = metadata !{i32 786480, null, metadata !"_AP_W", metadata !113, i64 52, null, i32 0, i32 0} ; [ DW_TAG_template_value_parameter ]
!888 = metadata !{i32 786445, metadata !627, metadata !"l_index", metadata !92, i32 927, i64 32, i64 32, i64 64, i32 0, metadata !113} ; [ DW_TAG_member ]
!889 = metadata !{i32 786445, metadata !627, metadata !"h_index", metadata !92, i32 928, i64 32, i64 32, i64 96, i32 0, metadata !113} ; [ DW_TAG_member ]
!890 = metadata !{i32 786478, i32 0, metadata !627, metadata !"ap_range_ref", metadata !"ap_range_ref", metadata !"", metadata !92, i32 931, metadata !891, i1 false, i1 false, i32 0, i32 0, null, i32 256, i1 false, null, null, i32 0, metadata !104, i32 931} ; [ DW_TAG_subprogram ]
!891 = metadata !{i32 786453, i32 0, metadata !"", i32 0, i32 0, i64 0, i64 0, i64 0, i32 0, null, metadata !892, i32 0, i32 0} ; [ DW_TAG_subroutine_type ]
!892 = metadata !{null, metadata !893, metadata !625}
!893 = metadata !{i32 786447, i32 0, metadata !"", i32 0, i32 0, i64 64, i64 64, i64 0, i32 64, metadata !627} ; [ DW_TAG_pointer_type ]
!894 = metadata !{i32 786478, i32 0, metadata !627, metadata !"ap_range_ref", metadata !"ap_range_ref", metadata !"", metadata !92, i32 934, metadata !895, i1 false, i1 false, i32 0, i32 0, null, i32 256, i1 false, null, null, i32 0, metadata !104, i32 934} ; [ DW_TAG_subprogram ]
!895 = metadata !{i32 786453, i32 0, metadata !"", i32 0, i32 0, i64 0, i64 0, i64 0, i32 0, null, metadata !896, i32 0, i32 0} ; [ DW_TAG_subroutine_type ]
!896 = metadata !{null, metadata !893, metadata !897, metadata !113, metadata !113}
!897 = metadata !{i32 786447, null, metadata !"", null, i32 0, i64 64, i64 64, i64 0, i32 0, metadata !631} ; [ DW_TAG_pointer_type ]
!898 = metadata !{i32 786478, i32 0, metadata !627, metadata !"operator ap_int_base", metadata !"operator ap_int_base", metadata !"_ZNK12ap_range_refILi52ELb0EEcv11ap_int_baseILi52ELb0ELb1EEEv", metadata !92, i32 939, metadata !899, i1 false, i1 false, i32 0, i32 0, null, i32 256, i1 false, null, null, i32 0, metadata !104, i32 939} ; [ DW_TAG_subprogram ]
!899 = metadata !{i32 786453, i32 0, metadata !"", i32 0, i32 0, i64 0, i64 0, i64 0, i32 0, null, metadata !900, i32 0, i32 0} ; [ DW_TAG_subroutine_type ]
!900 = metadata !{metadata !631, metadata !901}
!901 = metadata !{i32 786447, i32 0, metadata !"", i32 0, i32 0, i64 64, i64 64, i64 0, i32 64, metadata !626} ; [ DW_TAG_pointer_type ]
!902 = metadata !{i32 786478, i32 0, metadata !627, metadata !"operator unsigned long long", metadata !"operator unsigned long long", metadata !"_ZNK12ap_range_refILi52ELb0EEcvyEv", metadata !92, i32 945, metadata !903, i1 false, i1 false, i32 0, i32 0, null, i32 256, i1 false, null, null, i32 0, metadata !104, i32 945} ; [ DW_TAG_subprogram ]
!903 = metadata !{i32 786453, i32 0, metadata !"", i32 0, i32 0, i64 0, i64 0, i64 0, i32 0, null, metadata !904, i32 0, i32 0} ; [ DW_TAG_subroutine_type ]
!904 = metadata !{metadata !177, metadata !901}
!905 = metadata !{i32 786478, i32 0, metadata !627, metadata !"operator=", metadata !"operator=", metadata !"_ZN12ap_range_refILi52ELb0EEaSEy", metadata !92, i32 949, metadata !906, i1 false, i1 false, i32 0, i32 0, null, i32 256, i1 false, null, null, i32 0, metadata !104, i32 949} ; [ DW_TAG_subprogram ]
!906 = metadata !{i32 786453, i32 0, metadata !"", i32 0, i32 0, i64 0, i64 0, i64 0, i32 0, null, metadata !907, i32 0, i32 0} ; [ DW_TAG_subroutine_type ]
!907 = metadata !{metadata !908, metadata !893, metadata !177}
!908 = metadata !{i32 786448, null, null, null, i32 0, i64 0, i64 0, i64 0, i32 0, metadata !627} ; [ DW_TAG_reference_type ]
!909 = metadata !{i32 786478, i32 0, metadata !627, metadata !"operator=<64, false>", metadata !"operator=<64, false>", metadata !"_ZN12ap_range_refILi52ELb0EEaSILi64ELb0EEERS0_RKS_IXT_EXT0_EE", metadata !92, i32 963, metadata !910, i1 false, i1 false, i32 0, i32 0, null, i32 256, i1 false, null, metadata !125, i32 0, metadata !104, i32 963} ; [ DW_TAG_subprogram ]
!910 = metadata !{i32 786453, i32 0, metadata !"", i32 0, i32 0, i64 0, i64 0, i64 0, i32 0, null, metadata !911, i32 0, i32 0} ; [ DW_TAG_subroutine_type ]
!911 = metadata !{metadata !908, metadata !893, metadata !605}
!912 = metadata !{i32 786478, i32 0, metadata !627, metadata !"operator=", metadata !"operator=", metadata !"_ZN12ap_range_refILi52ELb0EEaSERKS0_", metadata !92, i32 967, metadata !913, i1 false, i1 false, i32 0, i32 0, null, i32 256, i1 false, null, null, i32 0, metadata !104, i32 967} ; [ DW_TAG_subprogram ]
!913 = metadata !{i32 786453, i32 0, metadata !"", i32 0, i32 0, i64 0, i64 0, i64 0, i32 0, null, metadata !914, i32 0, i32 0} ; [ DW_TAG_subroutine_type ]
!914 = metadata !{metadata !908, metadata !893, metadata !625}
!915 = metadata !{i32 786478, i32 0, metadata !627, metadata !"operator,", metadata !"operator,", metadata !"_ZN12ap_range_refILi52ELb0EEcmER11ap_int_baseILi52ELb0ELb1EE", metadata !92, i32 1022, metadata !916, i1 false, i1 false, i32 0, i32 0, null, i32 256, i1 false, null, null, i32 0, metadata !104, i32 1022} ; [ DW_TAG_subprogram ]
!916 = metadata !{i32 786453, i32 0, metadata !"", i32 0, i32 0, i64 0, i64 0, i64 0, i32 0, null, metadata !917, i32 0, i32 0} ; [ DW_TAG_subroutine_type ]
!917 = metadata !{metadata !918, metadata !893, metadata !630}
!918 = metadata !{i32 786434, null, metadata !"ap_concat_ref<52, ap_range_ref<52, false>, 52, ap_int_base<52, false, true> >", metadata !92, i32 688, i32 0, i32 0, i32 0, i32 4, null, null, i32 0} ; [ DW_TAG_class_type ]
!919 = metadata !{i32 786478, i32 0, metadata !627, metadata !"length", metadata !"length", metadata !"_ZNK12ap_range_refILi52ELb0EE6lengthEv", metadata !92, i32 1187, metadata !920, i1 false, i1 false, i32 0, i32 0, null, i32 256, i1 false, null, null, i32 0, metadata !104, i32 1187} ; [ DW_TAG_subprogram ]
!920 = metadata !{i32 786453, i32 0, metadata !"", i32 0, i32 0, i64 0, i64 0, i64 0, i32 0, null, metadata !921, i32 0, i32 0} ; [ DW_TAG_subroutine_type ]
!921 = metadata !{metadata !113, metadata !901}
!922 = metadata !{i32 786478, i32 0, metadata !627, metadata !"to_int", metadata !"to_int", metadata !"_ZNK12ap_range_refILi52ELb0EE6to_intEv", metadata !92, i32 1191, metadata !920, i1 false, i1 false, i32 0, i32 0, null, i32 256, i1 false, null, null, i32 0, metadata !104, i32 1191} ; [ DW_TAG_subprogram ]
!923 = metadata !{i32 786478, i32 0, metadata !627, metadata !"to_uint", metadata !"to_uint", metadata !"_ZNK12ap_range_refILi52ELb0EE7to_uintEv", metadata !92, i32 1194, metadata !924, i1 false, i1 false, i32 0, i32 0, null, i32 256, i1 false, null, null, i32 0, metadata !104, i32 1194} ; [ DW_TAG_subprogram ]
!924 = metadata !{i32 786453, i32 0, metadata !"", i32 0, i32 0, i64 0, i64 0, i64 0, i32 0, null, metadata !925, i32 0, i32 0} ; [ DW_TAG_subroutine_type ]
!925 = metadata !{metadata !159, metadata !901}
!926 = metadata !{i32 786478, i32 0, metadata !627, metadata !"to_long", metadata !"to_long", metadata !"_ZNK12ap_range_refILi52ELb0EE7to_longEv", metadata !92, i32 1197, metadata !927, i1 false, i1 false, i32 0, i32 0, null, i32 256, i1 false, null, null, i32 0, metadata !104, i32 1197} ; [ DW_TAG_subprogram ]
!927 = metadata !{i32 786453, i32 0, metadata !"", i32 0, i32 0, i64 0, i64 0, i64 0, i32 0, null, metadata !928, i32 0, i32 0} ; [ DW_TAG_subroutine_type ]
!928 = metadata !{metadata !163, metadata !901}
!929 = metadata !{i32 786478, i32 0, metadata !627, metadata !"to_ulong", metadata !"to_ulong", metadata !"_ZNK12ap_range_refILi52ELb0EE8to_ulongEv", metadata !92, i32 1200, metadata !930, i1 false, i1 false, i32 0, i32 0, null, i32 256, i1 false, null, null, i32 0, metadata !104, i32 1200} ; [ DW_TAG_subprogram ]
!930 = metadata !{i32 786453, i32 0, metadata !"", i32 0, i32 0, i64 0, i64 0, i64 0, i32 0, null, metadata !931, i32 0, i32 0} ; [ DW_TAG_subroutine_type ]
!931 = metadata !{metadata !167, metadata !901}
!932 = metadata !{i32 786478, i32 0, metadata !627, metadata !"to_int64", metadata !"to_int64", metadata !"_ZNK12ap_range_refILi52ELb0EE8to_int64Ev", metadata !92, i32 1203, metadata !933, i1 false, i1 false, i32 0, i32 0, null, i32 256, i1 false, null, null, i32 0, metadata !104, i32 1203} ; [ DW_TAG_subprogram ]
!933 = metadata !{i32 786453, i32 0, metadata !"", i32 0, i32 0, i64 0, i64 0, i64 0, i32 0, null, metadata !934, i32 0, i32 0} ; [ DW_TAG_subroutine_type ]
!934 = metadata !{metadata !171, metadata !901}
!935 = metadata !{i32 786478, i32 0, metadata !627, metadata !"to_uint64", metadata !"to_uint64", metadata !"_ZNK12ap_range_refILi52ELb0EE9to_uint64Ev", metadata !92, i32 1206, metadata !936, i1 false, i1 false, i32 0, i32 0, null, i32 256, i1 false, null, null, i32 0, metadata !104, i32 1206} ; [ DW_TAG_subprogram ]
!936 = metadata !{i32 786453, i32 0, metadata !"", i32 0, i32 0, i64 0, i64 0, i64 0, i32 0, null, metadata !937, i32 0, i32 0} ; [ DW_TAG_subroutine_type ]
!937 = metadata !{metadata !176, metadata !901}
!938 = metadata !{i32 786478, i32 0, metadata !627, metadata !"and_reduce", metadata !"and_reduce", metadata !"_ZNK12ap_range_refILi52ELb0EE10and_reduceEv", metadata !92, i32 1209, metadata !939, i1 false, i1 false, i32 0, i32 0, null, i32 256, i1 false, null, null, i32 0, metadata !104, i32 1209} ; [ DW_TAG_subprogram ]
!939 = metadata !{i32 786453, i32 0, metadata !"", i32 0, i32 0, i64 0, i64 0, i64 0, i32 0, null, metadata !940, i32 0, i32 0} ; [ DW_TAG_subroutine_type ]
!940 = metadata !{metadata !115, metadata !901}
!941 = metadata !{i32 786478, i32 0, metadata !627, metadata !"or_reduce", metadata !"or_reduce", metadata !"_ZNK12ap_range_refILi52ELb0EE9or_reduceEv", metadata !92, i32 1220, metadata !939, i1 false, i1 false, i32 0, i32 0, null, i32 256, i1 false, null, null, i32 0, metadata !104, i32 1220} ; [ DW_TAG_subprogram ]
!942 = metadata !{i32 786478, i32 0, metadata !627, metadata !"xor_reduce", metadata !"xor_reduce", metadata !"_ZNK12ap_range_refILi52ELb0EE10xor_reduceEv", metadata !92, i32 1231, metadata !939, i1 false, i1 false, i32 0, i32 0, null, i32 256, i1 false, null, null, i32 0, metadata !104, i32 1231} ; [ DW_TAG_subprogram ]
!943 = metadata !{i32 786478, i32 0, metadata !627, metadata !"~ap_range_ref", metadata !"~ap_range_ref", metadata !"", metadata !92, i32 925, metadata !944, i1 false, i1 false, i32 0, i32 0, null, i32 320, i1 false, null, null, i32 0, metadata !104, i32 925} ; [ DW_TAG_subprogram ]
!944 = metadata !{i32 786453, i32 0, metadata !"", i32 0, i32 0, i64 0, i64 0, i64 0, i32 0, null, metadata !945, i32 0, i32 0} ; [ DW_TAG_subroutine_type ]
!945 = metadata !{null, metadata !893}
!946 = metadata !{metadata !887, metadata !114}
!947 = metadata !{i32 786478, i32 0, metadata !596, metadata !"operator=<11, false>", metadata !"operator=<11, false>", metadata !"_ZN12ap_range_refILi64ELb0EEaSILi11ELb0EEERS0_RKS_IXT_EXT0_EE", metadata !92, i32 963, metadata !948, i1 false, i1 false, i32 0, i32 0, null, i32 256, i1 false, null, metadata !983, i32 0, metadata !104, i32 963} ; [ DW_TAG_subprogram ]
!948 = metadata !{i32 786453, i32 0, metadata !"", i32 0, i32 0, i64 0, i64 0, i64 0, i32 0, null, metadata !949, i32 0, i32 0} ; [ DW_TAG_subroutine_type ]
!949 = metadata !{metadata !621, metadata !604, metadata !950}
!950 = metadata !{i32 786448, null, null, null, i32 0, i64 0, i64 0, i64 0, i32 0, metadata !951} ; [ DW_TAG_reference_type ]
!951 = metadata !{i32 786470, null, metadata !"", null, i32 0, i64 0, i64 0, i64 0, i32 0, metadata !952} ; [ DW_TAG_const_type ]
!952 = metadata !{i32 786434, null, metadata !"ap_range_ref<11, false>", metadata !92, i32 925, i64 128, i64 64, i32 0, i32 0, null, metadata !953, i32 0, null, metadata !2810} ; [ DW_TAG_class_type ]
!953 = metadata !{metadata !954, metadata !2752, metadata !2753, metadata !2754, metadata !2758, metadata !2762, metadata !2766, metadata !2769, metadata !2773, metadata !2776, metadata !2779, metadata !2783, metadata !2786, metadata !2787, metadata !2790, metadata !2793, metadata !2796, metadata !2799, metadata !2802, metadata !2805, metadata !2806, metadata !2807}
!954 = metadata !{i32 786445, metadata !952, metadata !"d_bv", metadata !92, i32 926, i64 64, i64 64, i64 0, i32 0, metadata !955} ; [ DW_TAG_member ]
!955 = metadata !{i32 786448, null, null, null, i32 0, i64 0, i64 0, i64 0, i32 0, metadata !956} ; [ DW_TAG_reference_type ]
!956 = metadata !{i32 786434, null, metadata !"ap_int_base<11, false, true>", metadata !92, i32 1453, i64 16, i64 16, i32 0, i32 0, null, metadata !957, i32 0, null, metadata !2750} ; [ DW_TAG_class_type ]
!957 = metadata !{metadata !958, metadata !974, metadata !978, metadata !985, metadata !991, metadata !994, metadata !997, metadata !1000, metadata !1003, metadata !1006, metadata !1009, metadata !1012, metadata !1015, metadata !1018, metadata !1021, metadata !1024, metadata !1027, metadata !1030, metadata !1033, metadata !1036, metadata !1039, metadata !1043, metadata !1046, metadata !1049, metadata !1050, metadata !1053, metadata !1056, metadata !1059, metadata !1062, metadata !1065, metadata !1068, metadata !1071, metadata !1074, metadata !1077, metadata !1080, metadata !1083, metadata !1086, metadata !1095, metadata !1098, metadata !1101, metadata !1104, metadata !1107, metadata !1110, metadata !1113, metadata !1116, metadata !1119, metadata !1122, metadata !1125, metadata !1128, metadata !1131, metadata !1132, metadata !1136, metadata !1139, metadata !1140, metadata !1141, metadata !1142, metadata !1143, metadata !1144, metadata !1147, metadata !1148, metadata !1151, metadata !1152, metadata !1153, metadata !1154, metadata !1155, metadata !1156, metadata !1159, metadata !1160, metadata !1161, metadata !1164, metadata !1165, metadata !1168, metadata !1169, metadata !2712, metadata !2715, metadata !2716, metadata !2719, metadata !2720, metadata !2724, metadata !2725, metadata !2726, metadata !2727, metadata !2730, metadata !2731, metadata !2732, metadata !2733, metadata !2734, metadata !2735, metadata !2736, metadata !2737, metadata !2738, metadata !2739, metadata !2740, metadata !2741, metadata !2744, metadata !2747}
!958 = metadata !{i32 786460, metadata !956, null, metadata !92, i32 0, i64 0, i64 0, i64 0, i32 0, metadata !959} ; [ DW_TAG_inheritance ]
!959 = metadata !{i32 786434, null, metadata !"ssdm_int<11 + 1024 * 0, false>", metadata !96, i32 13, i64 16, i64 16, i32 0, i32 0, null, metadata !960, i32 0, null, metadata !972} ; [ DW_TAG_class_type ]
!960 = metadata !{metadata !961, metadata !963, metadata !967}
!961 = metadata !{i32 786445, metadata !959, metadata !"V", metadata !96, i32 13, i64 11, i64 16, i64 0, i32 0, metadata !962} ; [ DW_TAG_member ]
!962 = metadata !{i32 786468, null, metadata !"uint11", null, i32 0, i64 11, i64 16, i64 0, i32 0, i32 7} ; [ DW_TAG_base_type ]
!963 = metadata !{i32 786478, i32 0, metadata !959, metadata !"ssdm_int", metadata !"ssdm_int", metadata !"", metadata !96, i32 13, metadata !964, i1 false, i1 false, i32 0, i32 0, null, i32 256, i1 false, null, null, i32 0, metadata !104, i32 13} ; [ DW_TAG_subprogram ]
!964 = metadata !{i32 786453, i32 0, metadata !"", i32 0, i32 0, i64 0, i64 0, i64 0, i32 0, null, metadata !965, i32 0, i32 0} ; [ DW_TAG_subroutine_type ]
!965 = metadata !{null, metadata !966}
!966 = metadata !{i32 786447, i32 0, metadata !"", i32 0, i32 0, i64 64, i64 64, i64 0, i32 64, metadata !959} ; [ DW_TAG_pointer_type ]
!967 = metadata !{i32 786478, i32 0, metadata !959, metadata !"ssdm_int", metadata !"ssdm_int", metadata !"", metadata !96, i32 13, metadata !968, i1 false, i1 false, i32 0, i32 0, null, i32 320, i1 false, null, null, i32 0, metadata !104, i32 13} ; [ DW_TAG_subprogram ]
!968 = metadata !{i32 786453, i32 0, metadata !"", i32 0, i32 0, i64 0, i64 0, i64 0, i32 0, null, metadata !969, i32 0, i32 0} ; [ DW_TAG_subroutine_type ]
!969 = metadata !{null, metadata !966, metadata !970}
!970 = metadata !{i32 786448, null, null, null, i32 0, i64 0, i64 0, i64 0, i32 0, metadata !971} ; [ DW_TAG_reference_type ]
!971 = metadata !{i32 786470, null, metadata !"", null, i32 0, i64 0, i64 0, i64 0, i32 0, metadata !959} ; [ DW_TAG_const_type ]
!972 = metadata !{metadata !973, metadata !114}
!973 = metadata !{i32 786480, null, metadata !"_AP_N", metadata !113, i64 11, null, i32 0, i32 0} ; [ DW_TAG_template_value_parameter ]
!974 = metadata !{i32 786478, i32 0, metadata !956, metadata !"ap_int_base", metadata !"ap_int_base", metadata !"", metadata !92, i32 1494, metadata !975, i1 false, i1 false, i32 0, i32 0, null, i32 256, i1 false, null, null, i32 0, metadata !104, i32 1494} ; [ DW_TAG_subprogram ]
!975 = metadata !{i32 786453, i32 0, metadata !"", i32 0, i32 0, i64 0, i64 0, i64 0, i32 0, null, metadata !976, i32 0, i32 0} ; [ DW_TAG_subroutine_type ]
!976 = metadata !{null, metadata !977}
!977 = metadata !{i32 786447, i32 0, metadata !"", i32 0, i32 0, i64 64, i64 64, i64 0, i32 64, metadata !956} ; [ DW_TAG_pointer_type ]
!978 = metadata !{i32 786478, i32 0, metadata !956, metadata !"ap_int_base<11, false>", metadata !"ap_int_base<11, false>", metadata !"", metadata !92, i32 1506, metadata !979, i1 false, i1 false, i32 0, i32 0, null, i32 256, i1 false, null, metadata !983, i32 0, metadata !104, i32 1506} ; [ DW_TAG_subprogram ]
!979 = metadata !{i32 786453, i32 0, metadata !"", i32 0, i32 0, i64 0, i64 0, i64 0, i32 0, null, metadata !980, i32 0, i32 0} ; [ DW_TAG_subroutine_type ]
!980 = metadata !{null, metadata !977, metadata !981}
!981 = metadata !{i32 786448, null, null, null, i32 0, i64 0, i64 0, i64 0, i32 0, metadata !982} ; [ DW_TAG_reference_type ]
!982 = metadata !{i32 786470, null, metadata !"", null, i32 0, i64 0, i64 0, i64 0, i32 0, metadata !956} ; [ DW_TAG_const_type ]
!983 = metadata !{metadata !984, metadata !127}
!984 = metadata !{i32 786480, null, metadata !"_AP_W2", metadata !113, i64 11, null, i32 0, i32 0} ; [ DW_TAG_template_value_parameter ]
!985 = metadata !{i32 786478, i32 0, metadata !956, metadata !"ap_int_base<11, false>", metadata !"ap_int_base<11, false>", metadata !"", metadata !92, i32 1509, metadata !986, i1 false, i1 false, i32 0, i32 0, null, i32 256, i1 false, null, metadata !983, i32 0, metadata !104, i32 1509} ; [ DW_TAG_subprogram ]
!986 = metadata !{i32 786453, i32 0, metadata !"", i32 0, i32 0, i64 0, i64 0, i64 0, i32 0, null, metadata !987, i32 0, i32 0} ; [ DW_TAG_subroutine_type ]
!987 = metadata !{null, metadata !977, metadata !988}
!988 = metadata !{i32 786448, null, null, null, i32 0, i64 0, i64 0, i64 0, i32 0, metadata !989} ; [ DW_TAG_reference_type ]
!989 = metadata !{i32 786470, null, metadata !"", null, i32 0, i64 0, i64 0, i64 0, i32 0, metadata !990} ; [ DW_TAG_const_type ]
!990 = metadata !{i32 786485, null, metadata !"", null, i32 0, i64 0, i64 0, i64 0, i32 0, metadata !956} ; [ DW_TAG_volatile_type ]
!991 = metadata !{i32 786478, i32 0, metadata !956, metadata !"ap_int_base", metadata !"ap_int_base", metadata !"", metadata !92, i32 1516, metadata !992, i1 false, i1 false, i32 0, i32 0, null, i32 384, i1 false, null, null, i32 0, metadata !104, i32 1516} ; [ DW_TAG_subprogram ]
!992 = metadata !{i32 786453, i32 0, metadata !"", i32 0, i32 0, i64 0, i64 0, i64 0, i32 0, null, metadata !993, i32 0, i32 0} ; [ DW_TAG_subroutine_type ]
!993 = metadata !{null, metadata !977, metadata !115}
!994 = metadata !{i32 786478, i32 0, metadata !956, metadata !"ap_int_base", metadata !"ap_int_base", metadata !"", metadata !92, i32 1517, metadata !995, i1 false, i1 false, i32 0, i32 0, null, i32 384, i1 false, null, null, i32 0, metadata !104, i32 1517} ; [ DW_TAG_subprogram ]
!995 = metadata !{i32 786453, i32 0, metadata !"", i32 0, i32 0, i64 0, i64 0, i64 0, i32 0, null, metadata !996, i32 0, i32 0} ; [ DW_TAG_subroutine_type ]
!996 = metadata !{null, metadata !977, metadata !140}
!997 = metadata !{i32 786478, i32 0, metadata !956, metadata !"ap_int_base", metadata !"ap_int_base", metadata !"", metadata !92, i32 1518, metadata !998, i1 false, i1 false, i32 0, i32 0, null, i32 384, i1 false, null, null, i32 0, metadata !104, i32 1518} ; [ DW_TAG_subprogram ]
!998 = metadata !{i32 786453, i32 0, metadata !"", i32 0, i32 0, i64 0, i64 0, i64 0, i32 0, null, metadata !999, i32 0, i32 0} ; [ DW_TAG_subroutine_type ]
!999 = metadata !{null, metadata !977, metadata !144}
!1000 = metadata !{i32 786478, i32 0, metadata !956, metadata !"ap_int_base", metadata !"ap_int_base", metadata !"", metadata !92, i32 1519, metadata !1001, i1 false, i1 false, i32 0, i32 0, null, i32 384, i1 false, null, null, i32 0, metadata !104, i32 1519} ; [ DW_TAG_subprogram ]
!1001 = metadata !{i32 786453, i32 0, metadata !"", i32 0, i32 0, i64 0, i64 0, i64 0, i32 0, null, metadata !1002, i32 0, i32 0} ; [ DW_TAG_subroutine_type ]
!1002 = metadata !{null, metadata !977, metadata !148}
!1003 = metadata !{i32 786478, i32 0, metadata !956, metadata !"ap_int_base", metadata !"ap_int_base", metadata !"", metadata !92, i32 1520, metadata !1004, i1 false, i1 false, i32 0, i32 0, null, i32 384, i1 false, null, null, i32 0, metadata !104, i32 1520} ; [ DW_TAG_subprogram ]
!1004 = metadata !{i32 786453, i32 0, metadata !"", i32 0, i32 0, i64 0, i64 0, i64 0, i32 0, null, metadata !1005, i32 0, i32 0} ; [ DW_TAG_subroutine_type ]
!1005 = metadata !{null, metadata !977, metadata !152}
!1006 = metadata !{i32 786478, i32 0, metadata !956, metadata !"ap_int_base", metadata !"ap_int_base", metadata !"", metadata !92, i32 1521, metadata !1007, i1 false, i1 false, i32 0, i32 0, null, i32 384, i1 false, null, null, i32 0, metadata !104, i32 1521} ; [ DW_TAG_subprogram ]
!1007 = metadata !{i32 786453, i32 0, metadata !"", i32 0, i32 0, i64 0, i64 0, i64 0, i32 0, null, metadata !1008, i32 0, i32 0} ; [ DW_TAG_subroutine_type ]
!1008 = metadata !{null, metadata !977, metadata !113}
!1009 = metadata !{i32 786478, i32 0, metadata !956, metadata !"ap_int_base", metadata !"ap_int_base", metadata !"", metadata !92, i32 1522, metadata !1010, i1 false, i1 false, i32 0, i32 0, null, i32 384, i1 false, null, null, i32 0, metadata !104, i32 1522} ; [ DW_TAG_subprogram ]
!1010 = metadata !{i32 786453, i32 0, metadata !"", i32 0, i32 0, i64 0, i64 0, i64 0, i32 0, null, metadata !1011, i32 0, i32 0} ; [ DW_TAG_subroutine_type ]
!1011 = metadata !{null, metadata !977, metadata !159}
!1012 = metadata !{i32 786478, i32 0, metadata !956, metadata !"ap_int_base", metadata !"ap_int_base", metadata !"", metadata !92, i32 1523, metadata !1013, i1 false, i1 false, i32 0, i32 0, null, i32 384, i1 false, null, null, i32 0, metadata !104, i32 1523} ; [ DW_TAG_subprogram ]
!1013 = metadata !{i32 786453, i32 0, metadata !"", i32 0, i32 0, i64 0, i64 0, i64 0, i32 0, null, metadata !1014, i32 0, i32 0} ; [ DW_TAG_subroutine_type ]
!1014 = metadata !{null, metadata !977, metadata !163}
!1015 = metadata !{i32 786478, i32 0, metadata !956, metadata !"ap_int_base", metadata !"ap_int_base", metadata !"", metadata !92, i32 1524, metadata !1016, i1 false, i1 false, i32 0, i32 0, null, i32 384, i1 false, null, null, i32 0, metadata !104, i32 1524} ; [ DW_TAG_subprogram ]
!1016 = metadata !{i32 786453, i32 0, metadata !"", i32 0, i32 0, i64 0, i64 0, i64 0, i32 0, null, metadata !1017, i32 0, i32 0} ; [ DW_TAG_subroutine_type ]
!1017 = metadata !{null, metadata !977, metadata !167}
!1018 = metadata !{i32 786478, i32 0, metadata !956, metadata !"ap_int_base", metadata !"ap_int_base", metadata !"", metadata !92, i32 1525, metadata !1019, i1 false, i1 false, i32 0, i32 0, null, i32 384, i1 false, null, null, i32 0, metadata !104, i32 1525} ; [ DW_TAG_subprogram ]
!1019 = metadata !{i32 786453, i32 0, metadata !"", i32 0, i32 0, i64 0, i64 0, i64 0, i32 0, null, metadata !1020, i32 0, i32 0} ; [ DW_TAG_subroutine_type ]
!1020 = metadata !{null, metadata !977, metadata !171}
!1021 = metadata !{i32 786478, i32 0, metadata !956, metadata !"ap_int_base", metadata !"ap_int_base", metadata !"", metadata !92, i32 1526, metadata !1022, i1 false, i1 false, i32 0, i32 0, null, i32 384, i1 false, null, null, i32 0, metadata !104, i32 1526} ; [ DW_TAG_subprogram ]
!1022 = metadata !{i32 786453, i32 0, metadata !"", i32 0, i32 0, i64 0, i64 0, i64 0, i32 0, null, metadata !1023, i32 0, i32 0} ; [ DW_TAG_subroutine_type ]
!1023 = metadata !{null, metadata !977, metadata !176}
!1024 = metadata !{i32 786478, i32 0, metadata !956, metadata !"ap_int_base", metadata !"ap_int_base", metadata !"", metadata !92, i32 1527, metadata !1025, i1 false, i1 false, i32 0, i32 0, null, i32 384, i1 false, null, null, i32 0, metadata !104, i32 1527} ; [ DW_TAG_subprogram ]
!1025 = metadata !{i32 786453, i32 0, metadata !"", i32 0, i32 0, i64 0, i64 0, i64 0, i32 0, null, metadata !1026, i32 0, i32 0} ; [ DW_TAG_subroutine_type ]
!1026 = metadata !{null, metadata !977, metadata !181}
!1027 = metadata !{i32 786478, i32 0, metadata !956, metadata !"ap_int_base", metadata !"ap_int_base", metadata !"", metadata !92, i32 1528, metadata !1028, i1 false, i1 false, i32 0, i32 0, null, i32 384, i1 false, null, null, i32 0, metadata !104, i32 1528} ; [ DW_TAG_subprogram ]
!1028 = metadata !{i32 786453, i32 0, metadata !"", i32 0, i32 0, i64 0, i64 0, i64 0, i32 0, null, metadata !1029, i32 0, i32 0} ; [ DW_TAG_subroutine_type ]
!1029 = metadata !{null, metadata !977, metadata !186}
!1030 = metadata !{i32 786478, i32 0, metadata !956, metadata !"ap_int_base", metadata !"ap_int_base", metadata !"", metadata !92, i32 1529, metadata !1031, i1 false, i1 false, i32 0, i32 0, null, i32 384, i1 false, null, null, i32 0, metadata !104, i32 1529} ; [ DW_TAG_subprogram ]
!1031 = metadata !{i32 786453, i32 0, metadata !"", i32 0, i32 0, i64 0, i64 0, i64 0, i32 0, null, metadata !1032, i32 0, i32 0} ; [ DW_TAG_subroutine_type ]
!1032 = metadata !{null, metadata !977, metadata !190}
!1033 = metadata !{i32 786478, i32 0, metadata !956, metadata !"ap_int_base", metadata !"ap_int_base", metadata !"", metadata !92, i32 1556, metadata !1034, i1 false, i1 false, i32 0, i32 0, null, i32 256, i1 false, null, null, i32 0, metadata !104, i32 1556} ; [ DW_TAG_subprogram ]
!1034 = metadata !{i32 786453, i32 0, metadata !"", i32 0, i32 0, i64 0, i64 0, i64 0, i32 0, null, metadata !1035, i32 0, i32 0} ; [ DW_TAG_subroutine_type ]
!1035 = metadata !{null, metadata !977, metadata !194}
!1036 = metadata !{i32 786478, i32 0, metadata !956, metadata !"ap_int_base", metadata !"ap_int_base", metadata !"", metadata !92, i32 1563, metadata !1037, i1 false, i1 false, i32 0, i32 0, null, i32 256, i1 false, null, null, i32 0, metadata !104, i32 1563} ; [ DW_TAG_subprogram ]
!1037 = metadata !{i32 786453, i32 0, metadata !"", i32 0, i32 0, i64 0, i64 0, i64 0, i32 0, null, metadata !1038, i32 0, i32 0} ; [ DW_TAG_subroutine_type ]
!1038 = metadata !{null, metadata !977, metadata !194, metadata !140}
!1039 = metadata !{i32 786478, i32 0, metadata !956, metadata !"read", metadata !"read", metadata !"_ZNV11ap_int_baseILi11ELb0ELb1EE4readEv", metadata !92, i32 1584, metadata !1040, i1 false, i1 false, i32 0, i32 0, null, i32 256, i1 false, null, null, i32 0, metadata !104, i32 1584} ; [ DW_TAG_subprogram ]
!1040 = metadata !{i32 786453, i32 0, metadata !"", i32 0, i32 0, i64 0, i64 0, i64 0, i32 0, null, metadata !1041, i32 0, i32 0} ; [ DW_TAG_subroutine_type ]
!1041 = metadata !{metadata !956, metadata !1042}
!1042 = metadata !{i32 786447, i32 0, metadata !"", i32 0, i32 0, i64 64, i64 64, i64 0, i32 64, metadata !990} ; [ DW_TAG_pointer_type ]
!1043 = metadata !{i32 786478, i32 0, metadata !956, metadata !"write", metadata !"write", metadata !"_ZNV11ap_int_baseILi11ELb0ELb1EE5writeERKS0_", metadata !92, i32 1590, metadata !1044, i1 false, i1 false, i32 0, i32 0, null, i32 256, i1 false, null, null, i32 0, metadata !104, i32 1590} ; [ DW_TAG_subprogram ]
!1044 = metadata !{i32 786453, i32 0, metadata !"", i32 0, i32 0, i64 0, i64 0, i64 0, i32 0, null, metadata !1045, i32 0, i32 0} ; [ DW_TAG_subroutine_type ]
!1045 = metadata !{null, metadata !1042, metadata !981}
!1046 = metadata !{i32 786478, i32 0, metadata !956, metadata !"operator=", metadata !"operator=", metadata !"_ZNV11ap_int_baseILi11ELb0ELb1EEaSERVKS0_", metadata !92, i32 1602, metadata !1047, i1 false, i1 false, i32 0, i32 0, null, i32 256, i1 false, null, null, i32 0, metadata !104, i32 1602} ; [ DW_TAG_subprogram ]
!1047 = metadata !{i32 786453, i32 0, metadata !"", i32 0, i32 0, i64 0, i64 0, i64 0, i32 0, null, metadata !1048, i32 0, i32 0} ; [ DW_TAG_subroutine_type ]
!1048 = metadata !{null, metadata !1042, metadata !988}
!1049 = metadata !{i32 786478, i32 0, metadata !956, metadata !"operator=", metadata !"operator=", metadata !"_ZNV11ap_int_baseILi11ELb0ELb1EEaSERKS0_", metadata !92, i32 1611, metadata !1044, i1 false, i1 false, i32 0, i32 0, null, i32 256, i1 false, null, null, i32 0, metadata !104, i32 1611} ; [ DW_TAG_subprogram ]
!1050 = metadata !{i32 786478, i32 0, metadata !956, metadata !"operator=", metadata !"operator=", metadata !"_ZN11ap_int_baseILi11ELb0ELb1EEaSERVKS0_", metadata !92, i32 1634, metadata !1051, i1 false, i1 false, i32 0, i32 0, null, i32 256, i1 false, null, null, i32 0, metadata !104, i32 1634} ; [ DW_TAG_subprogram ]
!1051 = metadata !{i32 786453, i32 0, metadata !"", i32 0, i32 0, i64 0, i64 0, i64 0, i32 0, null, metadata !1052, i32 0, i32 0} ; [ DW_TAG_subroutine_type ]
!1052 = metadata !{metadata !955, metadata !977, metadata !988}
!1053 = metadata !{i32 786478, i32 0, metadata !956, metadata !"operator=", metadata !"operator=", metadata !"_ZN11ap_int_baseILi11ELb0ELb1EEaSERKS0_", metadata !92, i32 1639, metadata !1054, i1 false, i1 false, i32 0, i32 0, null, i32 256, i1 false, null, null, i32 0, metadata !104, i32 1639} ; [ DW_TAG_subprogram ]
!1054 = metadata !{i32 786453, i32 0, metadata !"", i32 0, i32 0, i64 0, i64 0, i64 0, i32 0, null, metadata !1055, i32 0, i32 0} ; [ DW_TAG_subroutine_type ]
!1055 = metadata !{metadata !955, metadata !977, metadata !981}
!1056 = metadata !{i32 786478, i32 0, metadata !956, metadata !"operator=", metadata !"operator=", metadata !"_ZN11ap_int_baseILi11ELb0ELb1EEaSEPKc", metadata !92, i32 1643, metadata !1057, i1 false, i1 false, i32 0, i32 0, null, i32 256, i1 false, null, null, i32 0, metadata !104, i32 1643} ; [ DW_TAG_subprogram ]
!1057 = metadata !{i32 786453, i32 0, metadata !"", i32 0, i32 0, i64 0, i64 0, i64 0, i32 0, null, metadata !1058, i32 0, i32 0} ; [ DW_TAG_subroutine_type ]
!1058 = metadata !{metadata !955, metadata !977, metadata !194}
!1059 = metadata !{i32 786478, i32 0, metadata !956, metadata !"set", metadata !"set", metadata !"_ZN11ap_int_baseILi11ELb0ELb1EE3setEPKca", metadata !92, i32 1651, metadata !1060, i1 false, i1 false, i32 0, i32 0, null, i32 256, i1 false, null, null, i32 0, metadata !104, i32 1651} ; [ DW_TAG_subprogram ]
!1060 = metadata !{i32 786453, i32 0, metadata !"", i32 0, i32 0, i64 0, i64 0, i64 0, i32 0, null, metadata !1061, i32 0, i32 0} ; [ DW_TAG_subroutine_type ]
!1061 = metadata !{metadata !955, metadata !977, metadata !194, metadata !140}
!1062 = metadata !{i32 786478, i32 0, metadata !956, metadata !"operator=", metadata !"operator=", metadata !"_ZN11ap_int_baseILi11ELb0ELb1EEaSEa", metadata !92, i32 1665, metadata !1063, i1 false, i1 false, i32 0, i32 0, null, i32 256, i1 false, null, null, i32 0, metadata !104, i32 1665} ; [ DW_TAG_subprogram ]
!1063 = metadata !{i32 786453, i32 0, metadata !"", i32 0, i32 0, i64 0, i64 0, i64 0, i32 0, null, metadata !1064, i32 0, i32 0} ; [ DW_TAG_subroutine_type ]
!1064 = metadata !{metadata !955, metadata !977, metadata !140}
!1065 = metadata !{i32 786478, i32 0, metadata !956, metadata !"operator=", metadata !"operator=", metadata !"_ZN11ap_int_baseILi11ELb0ELb1EEaSEh", metadata !92, i32 1666, metadata !1066, i1 false, i1 false, i32 0, i32 0, null, i32 256, i1 false, null, null, i32 0, metadata !104, i32 1666} ; [ DW_TAG_subprogram ]
!1066 = metadata !{i32 786453, i32 0, metadata !"", i32 0, i32 0, i64 0, i64 0, i64 0, i32 0, null, metadata !1067, i32 0, i32 0} ; [ DW_TAG_subroutine_type ]
!1067 = metadata !{metadata !955, metadata !977, metadata !144}
!1068 = metadata !{i32 786478, i32 0, metadata !956, metadata !"operator=", metadata !"operator=", metadata !"_ZN11ap_int_baseILi11ELb0ELb1EEaSEs", metadata !92, i32 1667, metadata !1069, i1 false, i1 false, i32 0, i32 0, null, i32 256, i1 false, null, null, i32 0, metadata !104, i32 1667} ; [ DW_TAG_subprogram ]
!1069 = metadata !{i32 786453, i32 0, metadata !"", i32 0, i32 0, i64 0, i64 0, i64 0, i32 0, null, metadata !1070, i32 0, i32 0} ; [ DW_TAG_subroutine_type ]
!1070 = metadata !{metadata !955, metadata !977, metadata !148}
!1071 = metadata !{i32 786478, i32 0, metadata !956, metadata !"operator=", metadata !"operator=", metadata !"_ZN11ap_int_baseILi11ELb0ELb1EEaSEt", metadata !92, i32 1668, metadata !1072, i1 false, i1 false, i32 0, i32 0, null, i32 256, i1 false, null, null, i32 0, metadata !104, i32 1668} ; [ DW_TAG_subprogram ]
!1072 = metadata !{i32 786453, i32 0, metadata !"", i32 0, i32 0, i64 0, i64 0, i64 0, i32 0, null, metadata !1073, i32 0, i32 0} ; [ DW_TAG_subroutine_type ]
!1073 = metadata !{metadata !955, metadata !977, metadata !152}
!1074 = metadata !{i32 786478, i32 0, metadata !956, metadata !"operator=", metadata !"operator=", metadata !"_ZN11ap_int_baseILi11ELb0ELb1EEaSEi", metadata !92, i32 1669, metadata !1075, i1 false, i1 false, i32 0, i32 0, null, i32 256, i1 false, null, null, i32 0, metadata !104, i32 1669} ; [ DW_TAG_subprogram ]
!1075 = metadata !{i32 786453, i32 0, metadata !"", i32 0, i32 0, i64 0, i64 0, i64 0, i32 0, null, metadata !1076, i32 0, i32 0} ; [ DW_TAG_subroutine_type ]
!1076 = metadata !{metadata !955, metadata !977, metadata !113}
!1077 = metadata !{i32 786478, i32 0, metadata !956, metadata !"operator=", metadata !"operator=", metadata !"_ZN11ap_int_baseILi11ELb0ELb1EEaSEj", metadata !92, i32 1670, metadata !1078, i1 false, i1 false, i32 0, i32 0, null, i32 256, i1 false, null, null, i32 0, metadata !104, i32 1670} ; [ DW_TAG_subprogram ]
!1078 = metadata !{i32 786453, i32 0, metadata !"", i32 0, i32 0, i64 0, i64 0, i64 0, i32 0, null, metadata !1079, i32 0, i32 0} ; [ DW_TAG_subroutine_type ]
!1079 = metadata !{metadata !955, metadata !977, metadata !159}
!1080 = metadata !{i32 786478, i32 0, metadata !956, metadata !"operator=", metadata !"operator=", metadata !"_ZN11ap_int_baseILi11ELb0ELb1EEaSEx", metadata !92, i32 1671, metadata !1081, i1 false, i1 false, i32 0, i32 0, null, i32 256, i1 false, null, null, i32 0, metadata !104, i32 1671} ; [ DW_TAG_subprogram ]
!1081 = metadata !{i32 786453, i32 0, metadata !"", i32 0, i32 0, i64 0, i64 0, i64 0, i32 0, null, metadata !1082, i32 0, i32 0} ; [ DW_TAG_subroutine_type ]
!1082 = metadata !{metadata !955, metadata !977, metadata !171}
!1083 = metadata !{i32 786478, i32 0, metadata !956, metadata !"operator=", metadata !"operator=", metadata !"_ZN11ap_int_baseILi11ELb0ELb1EEaSEy", metadata !92, i32 1672, metadata !1084, i1 false, i1 false, i32 0, i32 0, null, i32 256, i1 false, null, null, i32 0, metadata !104, i32 1672} ; [ DW_TAG_subprogram ]
!1084 = metadata !{i32 786453, i32 0, metadata !"", i32 0, i32 0, i64 0, i64 0, i64 0, i32 0, null, metadata !1085, i32 0, i32 0} ; [ DW_TAG_subroutine_type ]
!1085 = metadata !{metadata !955, metadata !977, metadata !176}
!1086 = metadata !{i32 786478, i32 0, metadata !956, metadata !"operator unsigned short", metadata !"operator unsigned short", metadata !"_ZNK11ap_int_baseILi11ELb0ELb1EEcvtEv", metadata !92, i32 1710, metadata !1087, i1 false, i1 false, i32 0, i32 0, null, i32 256, i1 false, null, null, i32 0, metadata !104, i32 1710} ; [ DW_TAG_subprogram ]
!1087 = metadata !{i32 786453, i32 0, metadata !"", i32 0, i32 0, i64 0, i64 0, i64 0, i32 0, null, metadata !1088, i32 0, i32 0} ; [ DW_TAG_subroutine_type ]
!1088 = metadata !{metadata !1089, metadata !1094}
!1089 = metadata !{i32 786454, metadata !956, metadata !"RetType", metadata !92, i32 1458, i64 0, i64 0, i64 0, i32 0, metadata !1090} ; [ DW_TAG_typedef ]
!1090 = metadata !{i32 786454, metadata !1091, metadata !"Type", metadata !92, i32 1432, i64 0, i64 0, i64 0, i32 0, metadata !152} ; [ DW_TAG_typedef ]
!1091 = metadata !{i32 786434, null, metadata !"retval<2, false>", metadata !92, i32 1431, i64 8, i64 8, i32 0, i32 0, null, metadata !254, i32 0, null, metadata !1092} ; [ DW_TAG_class_type ]
!1092 = metadata !{metadata !1093, metadata !114}
!1093 = metadata !{i32 786480, null, metadata !"_AP_N", metadata !113, i64 2, null, i32 0, i32 0} ; [ DW_TAG_template_value_parameter ]
!1094 = metadata !{i32 786447, i32 0, metadata !"", i32 0, i32 0, i64 64, i64 64, i64 0, i32 64, metadata !982} ; [ DW_TAG_pointer_type ]
!1095 = metadata !{i32 786478, i32 0, metadata !956, metadata !"to_bool", metadata !"to_bool", metadata !"_ZNK11ap_int_baseILi11ELb0ELb1EE7to_boolEv", metadata !92, i32 1716, metadata !1096, i1 false, i1 false, i32 0, i32 0, null, i32 256, i1 false, null, null, i32 0, metadata !104, i32 1716} ; [ DW_TAG_subprogram ]
!1096 = metadata !{i32 786453, i32 0, metadata !"", i32 0, i32 0, i64 0, i64 0, i64 0, i32 0, null, metadata !1097, i32 0, i32 0} ; [ DW_TAG_subroutine_type ]
!1097 = metadata !{metadata !115, metadata !1094}
!1098 = metadata !{i32 786478, i32 0, metadata !956, metadata !"to_uchar", metadata !"to_uchar", metadata !"_ZNK11ap_int_baseILi11ELb0ELb1EE8to_ucharEv", metadata !92, i32 1717, metadata !1099, i1 false, i1 false, i32 0, i32 0, null, i32 256, i1 false, null, null, i32 0, metadata !104, i32 1717} ; [ DW_TAG_subprogram ]
!1099 = metadata !{i32 786453, i32 0, metadata !"", i32 0, i32 0, i64 0, i64 0, i64 0, i32 0, null, metadata !1100, i32 0, i32 0} ; [ DW_TAG_subroutine_type ]
!1100 = metadata !{metadata !144, metadata !1094}
!1101 = metadata !{i32 786478, i32 0, metadata !956, metadata !"to_char", metadata !"to_char", metadata !"_ZNK11ap_int_baseILi11ELb0ELb1EE7to_charEv", metadata !92, i32 1718, metadata !1102, i1 false, i1 false, i32 0, i32 0, null, i32 256, i1 false, null, null, i32 0, metadata !104, i32 1718} ; [ DW_TAG_subprogram ]
!1102 = metadata !{i32 786453, i32 0, metadata !"", i32 0, i32 0, i64 0, i64 0, i64 0, i32 0, null, metadata !1103, i32 0, i32 0} ; [ DW_TAG_subroutine_type ]
!1103 = metadata !{metadata !140, metadata !1094}
!1104 = metadata !{i32 786478, i32 0, metadata !956, metadata !"to_ushort", metadata !"to_ushort", metadata !"_ZNK11ap_int_baseILi11ELb0ELb1EE9to_ushortEv", metadata !92, i32 1719, metadata !1105, i1 false, i1 false, i32 0, i32 0, null, i32 256, i1 false, null, null, i32 0, metadata !104, i32 1719} ; [ DW_TAG_subprogram ]
!1105 = metadata !{i32 786453, i32 0, metadata !"", i32 0, i32 0, i64 0, i64 0, i64 0, i32 0, null, metadata !1106, i32 0, i32 0} ; [ DW_TAG_subroutine_type ]
!1106 = metadata !{metadata !152, metadata !1094}
!1107 = metadata !{i32 786478, i32 0, metadata !956, metadata !"to_short", metadata !"to_short", metadata !"_ZNK11ap_int_baseILi11ELb0ELb1EE8to_shortEv", metadata !92, i32 1720, metadata !1108, i1 false, i1 false, i32 0, i32 0, null, i32 256, i1 false, null, null, i32 0, metadata !104, i32 1720} ; [ DW_TAG_subprogram ]
!1108 = metadata !{i32 786453, i32 0, metadata !"", i32 0, i32 0, i64 0, i64 0, i64 0, i32 0, null, metadata !1109, i32 0, i32 0} ; [ DW_TAG_subroutine_type ]
!1109 = metadata !{metadata !148, metadata !1094}
!1110 = metadata !{i32 786478, i32 0, metadata !956, metadata !"to_int", metadata !"to_int", metadata !"_ZNK11ap_int_baseILi11ELb0ELb1EE6to_intEv", metadata !92, i32 1721, metadata !1111, i1 false, i1 false, i32 0, i32 0, null, i32 256, i1 false, null, null, i32 0, metadata !104, i32 1721} ; [ DW_TAG_subprogram ]
!1111 = metadata !{i32 786453, i32 0, metadata !"", i32 0, i32 0, i64 0, i64 0, i64 0, i32 0, null, metadata !1112, i32 0, i32 0} ; [ DW_TAG_subroutine_type ]
!1112 = metadata !{metadata !113, metadata !1094}
!1113 = metadata !{i32 786478, i32 0, metadata !956, metadata !"to_uint", metadata !"to_uint", metadata !"_ZNK11ap_int_baseILi11ELb0ELb1EE7to_uintEv", metadata !92, i32 1722, metadata !1114, i1 false, i1 false, i32 0, i32 0, null, i32 256, i1 false, null, null, i32 0, metadata !104, i32 1722} ; [ DW_TAG_subprogram ]
!1114 = metadata !{i32 786453, i32 0, metadata !"", i32 0, i32 0, i64 0, i64 0, i64 0, i32 0, null, metadata !1115, i32 0, i32 0} ; [ DW_TAG_subroutine_type ]
!1115 = metadata !{metadata !159, metadata !1094}
!1116 = metadata !{i32 786478, i32 0, metadata !956, metadata !"to_long", metadata !"to_long", metadata !"_ZNK11ap_int_baseILi11ELb0ELb1EE7to_longEv", metadata !92, i32 1723, metadata !1117, i1 false, i1 false, i32 0, i32 0, null, i32 256, i1 false, null, null, i32 0, metadata !104, i32 1723} ; [ DW_TAG_subprogram ]
!1117 = metadata !{i32 786453, i32 0, metadata !"", i32 0, i32 0, i64 0, i64 0, i64 0, i32 0, null, metadata !1118, i32 0, i32 0} ; [ DW_TAG_subroutine_type ]
!1118 = metadata !{metadata !163, metadata !1094}
!1119 = metadata !{i32 786478, i32 0, metadata !956, metadata !"to_ulong", metadata !"to_ulong", metadata !"_ZNK11ap_int_baseILi11ELb0ELb1EE8to_ulongEv", metadata !92, i32 1724, metadata !1120, i1 false, i1 false, i32 0, i32 0, null, i32 256, i1 false, null, null, i32 0, metadata !104, i32 1724} ; [ DW_TAG_subprogram ]
!1120 = metadata !{i32 786453, i32 0, metadata !"", i32 0, i32 0, i64 0, i64 0, i64 0, i32 0, null, metadata !1121, i32 0, i32 0} ; [ DW_TAG_subroutine_type ]
!1121 = metadata !{metadata !167, metadata !1094}
!1122 = metadata !{i32 786478, i32 0, metadata !956, metadata !"to_int64", metadata !"to_int64", metadata !"_ZNK11ap_int_baseILi11ELb0ELb1EE8to_int64Ev", metadata !92, i32 1725, metadata !1123, i1 false, i1 false, i32 0, i32 0, null, i32 256, i1 false, null, null, i32 0, metadata !104, i32 1725} ; [ DW_TAG_subprogram ]
!1123 = metadata !{i32 786453, i32 0, metadata !"", i32 0, i32 0, i64 0, i64 0, i64 0, i32 0, null, metadata !1124, i32 0, i32 0} ; [ DW_TAG_subroutine_type ]
!1124 = metadata !{metadata !171, metadata !1094}
!1125 = metadata !{i32 786478, i32 0, metadata !956, metadata !"to_uint64", metadata !"to_uint64", metadata !"_ZNK11ap_int_baseILi11ELb0ELb1EE9to_uint64Ev", metadata !92, i32 1726, metadata !1126, i1 false, i1 false, i32 0, i32 0, null, i32 256, i1 false, null, null, i32 0, metadata !104, i32 1726} ; [ DW_TAG_subprogram ]
!1126 = metadata !{i32 786453, i32 0, metadata !"", i32 0, i32 0, i64 0, i64 0, i64 0, i32 0, null, metadata !1127, i32 0, i32 0} ; [ DW_TAG_subroutine_type ]
!1127 = metadata !{metadata !176, metadata !1094}
!1128 = metadata !{i32 786478, i32 0, metadata !956, metadata !"to_double", metadata !"to_double", metadata !"_ZNK11ap_int_baseILi11ELb0ELb1EE9to_doubleEv", metadata !92, i32 1727, metadata !1129, i1 false, i1 false, i32 0, i32 0, null, i32 256, i1 false, null, null, i32 0, metadata !104, i32 1727} ; [ DW_TAG_subprogram ]
!1129 = metadata !{i32 786453, i32 0, metadata !"", i32 0, i32 0, i64 0, i64 0, i64 0, i32 0, null, metadata !1130, i32 0, i32 0} ; [ DW_TAG_subroutine_type ]
!1130 = metadata !{metadata !190, metadata !1094}
!1131 = metadata !{i32 786478, i32 0, metadata !956, metadata !"length", metadata !"length", metadata !"_ZNK11ap_int_baseILi11ELb0ELb1EE6lengthEv", metadata !92, i32 1741, metadata !1111, i1 false, i1 false, i32 0, i32 0, null, i32 256, i1 false, null, null, i32 0, metadata !104, i32 1741} ; [ DW_TAG_subprogram ]
!1132 = metadata !{i32 786478, i32 0, metadata !956, metadata !"length", metadata !"length", metadata !"_ZNVK11ap_int_baseILi11ELb0ELb1EE6lengthEv", metadata !92, i32 1742, metadata !1133, i1 false, i1 false, i32 0, i32 0, null, i32 256, i1 false, null, null, i32 0, metadata !104, i32 1742} ; [ DW_TAG_subprogram ]
!1133 = metadata !{i32 786453, i32 0, metadata !"", i32 0, i32 0, i64 0, i64 0, i64 0, i32 0, null, metadata !1134, i32 0, i32 0} ; [ DW_TAG_subroutine_type ]
!1134 = metadata !{metadata !113, metadata !1135}
!1135 = metadata !{i32 786447, i32 0, metadata !"", i32 0, i32 0, i64 64, i64 64, i64 0, i32 64, metadata !989} ; [ DW_TAG_pointer_type ]
!1136 = metadata !{i32 786478, i32 0, metadata !956, metadata !"reverse", metadata !"reverse", metadata !"_ZN11ap_int_baseILi11ELb0ELb1EE7reverseEv", metadata !92, i32 1747, metadata !1137, i1 false, i1 false, i32 0, i32 0, null, i32 256, i1 false, null, null, i32 0, metadata !104, i32 1747} ; [ DW_TAG_subprogram ]
!1137 = metadata !{i32 786453, i32 0, metadata !"", i32 0, i32 0, i64 0, i64 0, i64 0, i32 0, null, metadata !1138, i32 0, i32 0} ; [ DW_TAG_subroutine_type ]
!1138 = metadata !{metadata !955, metadata !977}
!1139 = metadata !{i32 786478, i32 0, metadata !956, metadata !"iszero", metadata !"iszero", metadata !"_ZNK11ap_int_baseILi11ELb0ELb1EE6iszeroEv", metadata !92, i32 1753, metadata !1096, i1 false, i1 false, i32 0, i32 0, null, i32 256, i1 false, null, null, i32 0, metadata !104, i32 1753} ; [ DW_TAG_subprogram ]
!1140 = metadata !{i32 786478, i32 0, metadata !956, metadata !"is_zero", metadata !"is_zero", metadata !"_ZNK11ap_int_baseILi11ELb0ELb1EE7is_zeroEv", metadata !92, i32 1758, metadata !1096, i1 false, i1 false, i32 0, i32 0, null, i32 256, i1 false, null, null, i32 0, metadata !104, i32 1758} ; [ DW_TAG_subprogram ]
!1141 = metadata !{i32 786478, i32 0, metadata !956, metadata !"sign", metadata !"sign", metadata !"_ZNK11ap_int_baseILi11ELb0ELb1EE4signEv", metadata !92, i32 1763, metadata !1096, i1 false, i1 false, i32 0, i32 0, null, i32 256, i1 false, null, null, i32 0, metadata !104, i32 1763} ; [ DW_TAG_subprogram ]
!1142 = metadata !{i32 786478, i32 0, metadata !956, metadata !"clear", metadata !"clear", metadata !"_ZN11ap_int_baseILi11ELb0ELb1EE5clearEi", metadata !92, i32 1771, metadata !1007, i1 false, i1 false, i32 0, i32 0, null, i32 256, i1 false, null, null, i32 0, metadata !104, i32 1771} ; [ DW_TAG_subprogram ]
!1143 = metadata !{i32 786478, i32 0, metadata !956, metadata !"invert", metadata !"invert", metadata !"_ZN11ap_int_baseILi11ELb0ELb1EE6invertEi", metadata !92, i32 1777, metadata !1007, i1 false, i1 false, i32 0, i32 0, null, i32 256, i1 false, null, null, i32 0, metadata !104, i32 1777} ; [ DW_TAG_subprogram ]
!1144 = metadata !{i32 786478, i32 0, metadata !956, metadata !"test", metadata !"test", metadata !"_ZNK11ap_int_baseILi11ELb0ELb1EE4testEi", metadata !92, i32 1785, metadata !1145, i1 false, i1 false, i32 0, i32 0, null, i32 256, i1 false, null, null, i32 0, metadata !104, i32 1785} ; [ DW_TAG_subprogram ]
!1145 = metadata !{i32 786453, i32 0, metadata !"", i32 0, i32 0, i64 0, i64 0, i64 0, i32 0, null, metadata !1146, i32 0, i32 0} ; [ DW_TAG_subroutine_type ]
!1146 = metadata !{metadata !115, metadata !1094, metadata !113}
!1147 = metadata !{i32 786478, i32 0, metadata !956, metadata !"set", metadata !"set", metadata !"_ZN11ap_int_baseILi11ELb0ELb1EE3setEi", metadata !92, i32 1791, metadata !1007, i1 false, i1 false, i32 0, i32 0, null, i32 256, i1 false, null, null, i32 0, metadata !104, i32 1791} ; [ DW_TAG_subprogram ]
!1148 = metadata !{i32 786478, i32 0, metadata !956, metadata !"set", metadata !"set", metadata !"_ZN11ap_int_baseILi11ELb0ELb1EE3setEib", metadata !92, i32 1797, metadata !1149, i1 false, i1 false, i32 0, i32 0, null, i32 256, i1 false, null, null, i32 0, metadata !104, i32 1797} ; [ DW_TAG_subprogram ]
!1149 = metadata !{i32 786453, i32 0, metadata !"", i32 0, i32 0, i64 0, i64 0, i64 0, i32 0, null, metadata !1150, i32 0, i32 0} ; [ DW_TAG_subroutine_type ]
!1150 = metadata !{null, metadata !977, metadata !113, metadata !115}
!1151 = metadata !{i32 786478, i32 0, metadata !956, metadata !"lrotate", metadata !"lrotate", metadata !"_ZN11ap_int_baseILi11ELb0ELb1EE7lrotateEi", metadata !92, i32 1804, metadata !1007, i1 false, i1 false, i32 0, i32 0, null, i32 256, i1 false, null, null, i32 0, metadata !104, i32 1804} ; [ DW_TAG_subprogram ]
!1152 = metadata !{i32 786478, i32 0, metadata !956, metadata !"rrotate", metadata !"rrotate", metadata !"_ZN11ap_int_baseILi11ELb0ELb1EE7rrotateEi", metadata !92, i32 1813, metadata !1007, i1 false, i1 false, i32 0, i32 0, null, i32 256, i1 false, null, null, i32 0, metadata !104, i32 1813} ; [ DW_TAG_subprogram ]
!1153 = metadata !{i32 786478, i32 0, metadata !956, metadata !"set_bit", metadata !"set_bit", metadata !"_ZN11ap_int_baseILi11ELb0ELb1EE7set_bitEib", metadata !92, i32 1821, metadata !1149, i1 false, i1 false, i32 0, i32 0, null, i32 256, i1 false, null, null, i32 0, metadata !104, i32 1821} ; [ DW_TAG_subprogram ]
!1154 = metadata !{i32 786478, i32 0, metadata !956, metadata !"get_bit", metadata !"get_bit", metadata !"_ZNK11ap_int_baseILi11ELb0ELb1EE7get_bitEi", metadata !92, i32 1826, metadata !1145, i1 false, i1 false, i32 0, i32 0, null, i32 256, i1 false, null, null, i32 0, metadata !104, i32 1826} ; [ DW_TAG_subprogram ]
!1155 = metadata !{i32 786478, i32 0, metadata !956, metadata !"b_not", metadata !"b_not", metadata !"_ZN11ap_int_baseILi11ELb0ELb1EE5b_notEv", metadata !92, i32 1831, metadata !975, i1 false, i1 false, i32 0, i32 0, null, i32 256, i1 false, null, null, i32 0, metadata !104, i32 1831} ; [ DW_TAG_subprogram ]
!1156 = metadata !{i32 786478, i32 0, metadata !956, metadata !"countLeadingZeros", metadata !"countLeadingZeros", metadata !"_ZN11ap_int_baseILi11ELb0ELb1EE17countLeadingZerosEv", metadata !92, i32 1838, metadata !1157, i1 false, i1 false, i32 0, i32 0, null, i32 256, i1 false, null, null, i32 0, metadata !104, i32 1838} ; [ DW_TAG_subprogram ]
!1157 = metadata !{i32 786453, i32 0, metadata !"", i32 0, i32 0, i64 0, i64 0, i64 0, i32 0, null, metadata !1158, i32 0, i32 0} ; [ DW_TAG_subroutine_type ]
!1158 = metadata !{metadata !113, metadata !977}
!1159 = metadata !{i32 786478, i32 0, metadata !956, metadata !"operator++", metadata !"operator++", metadata !"_ZN11ap_int_baseILi11ELb0ELb1EEppEv", metadata !92, i32 1895, metadata !1137, i1 false, i1 false, i32 0, i32 0, null, i32 256, i1 false, null, null, i32 0, metadata !104, i32 1895} ; [ DW_TAG_subprogram ]
!1160 = metadata !{i32 786478, i32 0, metadata !956, metadata !"operator--", metadata !"operator--", metadata !"_ZN11ap_int_baseILi11ELb0ELb1EEmmEv", metadata !92, i32 1899, metadata !1137, i1 false, i1 false, i32 0, i32 0, null, i32 256, i1 false, null, null, i32 0, metadata !104, i32 1899} ; [ DW_TAG_subprogram ]
!1161 = metadata !{i32 786478, i32 0, metadata !956, metadata !"operator++", metadata !"operator++", metadata !"_ZN11ap_int_baseILi11ELb0ELb1EEppEi", metadata !92, i32 1907, metadata !1162, i1 false, i1 false, i32 0, i32 0, null, i32 256, i1 false, null, null, i32 0, metadata !104, i32 1907} ; [ DW_TAG_subprogram ]
!1162 = metadata !{i32 786453, i32 0, metadata !"", i32 0, i32 0, i64 0, i64 0, i64 0, i32 0, null, metadata !1163, i32 0, i32 0} ; [ DW_TAG_subroutine_type ]
!1163 = metadata !{metadata !982, metadata !977, metadata !113}
!1164 = metadata !{i32 786478, i32 0, metadata !956, metadata !"operator--", metadata !"operator--", metadata !"_ZN11ap_int_baseILi11ELb0ELb1EEmmEi", metadata !92, i32 1912, metadata !1162, i1 false, i1 false, i32 0, i32 0, null, i32 256, i1 false, null, null, i32 0, metadata !104, i32 1912} ; [ DW_TAG_subprogram ]
!1165 = metadata !{i32 786478, i32 0, metadata !956, metadata !"operator+", metadata !"operator+", metadata !"_ZNK11ap_int_baseILi11ELb0ELb1EEpsEv", metadata !92, i32 1921, metadata !1166, i1 false, i1 false, i32 0, i32 0, null, i32 256, i1 false, null, null, i32 0, metadata !104, i32 1921} ; [ DW_TAG_subprogram ]
!1166 = metadata !{i32 786453, i32 0, metadata !"", i32 0, i32 0, i64 0, i64 0, i64 0, i32 0, null, metadata !1167, i32 0, i32 0} ; [ DW_TAG_subroutine_type ]
!1167 = metadata !{metadata !956, metadata !1094}
!1168 = metadata !{i32 786478, i32 0, metadata !956, metadata !"operator!", metadata !"operator!", metadata !"_ZNK11ap_int_baseILi11ELb0ELb1EEntEv", metadata !92, i32 1927, metadata !1096, i1 false, i1 false, i32 0, i32 0, null, i32 256, i1 false, null, null, i32 0, metadata !104, i32 1927} ; [ DW_TAG_subprogram ]
!1169 = metadata !{i32 786478, i32 0, metadata !956, metadata !"operator-", metadata !"operator-", metadata !"_ZNK11ap_int_baseILi11ELb0ELb1EEngEv", metadata !92, i32 1932, metadata !1170, i1 false, i1 false, i32 0, i32 0, null, i32 256, i1 false, null, null, i32 0, metadata !104, i32 1932} ; [ DW_TAG_subprogram ]
!1170 = metadata !{i32 786453, i32 0, metadata !"", i32 0, i32 0, i64 0, i64 0, i64 0, i32 0, null, metadata !1171, i32 0, i32 0} ; [ DW_TAG_subroutine_type ]
!1171 = metadata !{metadata !1172, metadata !1094}
!1172 = metadata !{i32 786434, null, metadata !"ap_int_base<12, true, true>", metadata !92, i32 1453, i64 16, i64 16, i32 0, i32 0, null, metadata !1173, i32 0, null, metadata !2710} ; [ DW_TAG_class_type ]
!1173 = metadata !{metadata !1174, metadata !1185, metadata !1189, metadata !2469, metadata !2472, metadata !2475, metadata !2478, metadata !2481, metadata !2484, metadata !2487, metadata !2490, metadata !2493, metadata !2496, metadata !2499, metadata !2502, metadata !2505, metadata !2508, metadata !2511, metadata !2514, metadata !2517, metadata !2520, metadata !2525, metadata !2530, metadata !2533, metadata !2538, metadata !2541, metadata !2542, metadata !2546, metadata !2549, metadata !2552, metadata !2555, metadata !2558, metadata !2561, metadata !2564, metadata !2567, metadata !2570, metadata !2573, metadata !2576, metadata !2579, metadata !2582, metadata !2585, metadata !2593, metadata !2596, metadata !2599, metadata !2602, metadata !2605, metadata !2608, metadata !2611, metadata !2614, metadata !2617, metadata !2620, metadata !2623, metadata !2626, metadata !2629, metadata !2630, metadata !2634, metadata !2637, metadata !2638, metadata !2639, metadata !2640, metadata !2641, metadata !2642, metadata !2645, metadata !2646, metadata !2649, metadata !2650, metadata !2651, metadata !2652, metadata !2653, metadata !2654, metadata !2657, metadata !2658, metadata !2659, metadata !2662, metadata !2663, metadata !2666, metadata !2667, metadata !2671, metadata !2675, metadata !2676, metadata !2679, metadata !2680, metadata !2684, metadata !2685, metadata !2686, metadata !2687, metadata !2690, metadata !2691, metadata !2692, metadata !2693, metadata !2694, metadata !2695, metadata !2696, metadata !2697, metadata !2698, metadata !2699, metadata !2700, metadata !2701, metadata !2704, metadata !2707}
!1174 = metadata !{i32 786460, metadata !1172, null, metadata !92, i32 0, i64 0, i64 0, i64 0, i32 0, metadata !1175} ; [ DW_TAG_inheritance ]
!1175 = metadata !{i32 786434, null, metadata !"ssdm_int<12 + 1024 * 0, true>", metadata !96, i32 14, i64 16, i64 16, i32 0, i32 0, null, metadata !1176, i32 0, null, metadata !1183} ; [ DW_TAG_class_type ]
!1176 = metadata !{metadata !1177, metadata !1179}
!1177 = metadata !{i32 786445, metadata !1175, metadata !"V", metadata !96, i32 14, i64 12, i64 16, i64 0, i32 0, metadata !1178} ; [ DW_TAG_member ]
!1178 = metadata !{i32 786468, null, metadata !"int12", null, i32 0, i64 12, i64 16, i64 0, i32 0, i32 5} ; [ DW_TAG_base_type ]
!1179 = metadata !{i32 786478, i32 0, metadata !1175, metadata !"ssdm_int", metadata !"ssdm_int", metadata !"", metadata !96, i32 14, metadata !1180, i1 false, i1 false, i32 0, i32 0, null, i32 256, i1 false, null, null, i32 0, metadata !104, i32 14} ; [ DW_TAG_subprogram ]
!1180 = metadata !{i32 786453, i32 0, metadata !"", i32 0, i32 0, i64 0, i64 0, i64 0, i32 0, null, metadata !1181, i32 0, i32 0} ; [ DW_TAG_subroutine_type ]
!1181 = metadata !{null, metadata !1182}
!1182 = metadata !{i32 786447, i32 0, metadata !"", i32 0, i32 0, i64 64, i64 64, i64 0, i32 64, metadata !1175} ; [ DW_TAG_pointer_type ]
!1183 = metadata !{metadata !1184, metadata !347}
!1184 = metadata !{i32 786480, null, metadata !"_AP_N", metadata !113, i64 12, null, i32 0, i32 0} ; [ DW_TAG_template_value_parameter ]
!1185 = metadata !{i32 786478, i32 0, metadata !1172, metadata !"ap_int_base", metadata !"ap_int_base", metadata !"", metadata !92, i32 1494, metadata !1186, i1 false, i1 false, i32 0, i32 0, null, i32 256, i1 false, null, null, i32 0, metadata !104, i32 1494} ; [ DW_TAG_subprogram ]
!1186 = metadata !{i32 786453, i32 0, metadata !"", i32 0, i32 0, i64 0, i64 0, i64 0, i32 0, null, metadata !1187, i32 0, i32 0} ; [ DW_TAG_subroutine_type ]
!1187 = metadata !{null, metadata !1188}
!1188 = metadata !{i32 786447, i32 0, metadata !"", i32 0, i32 0, i64 64, i64 64, i64 0, i32 64, metadata !1172} ; [ DW_TAG_pointer_type ]
!1189 = metadata !{i32 786478, i32 0, metadata !1172, metadata !"ap_int_base<33, true>", metadata !"ap_int_base<33, true>", metadata !"", metadata !92, i32 1506, metadata !1190, i1 false, i1 false, i32 0, i32 0, null, i32 256, i1 false, null, metadata !1214, i32 0, metadata !104, i32 1506} ; [ DW_TAG_subprogram ]
!1190 = metadata !{i32 786453, i32 0, metadata !"", i32 0, i32 0, i64 0, i64 0, i64 0, i32 0, null, metadata !1191, i32 0, i32 0} ; [ DW_TAG_subroutine_type ]
!1191 = metadata !{null, metadata !1188, metadata !1192}
!1192 = metadata !{i32 786448, null, null, null, i32 0, i64 0, i64 0, i64 0, i32 0, metadata !1193} ; [ DW_TAG_reference_type ]
!1193 = metadata !{i32 786470, null, metadata !"", null, i32 0, i64 0, i64 0, i64 0, i32 0, metadata !1194} ; [ DW_TAG_const_type ]
!1194 = metadata !{i32 786434, null, metadata !"ap_int_base<33, true, true>", metadata !92, i32 1453, i64 64, i64 64, i32 0, i32 0, null, metadata !1195, i32 0, null, metadata !2468} ; [ DW_TAG_class_type ]
!1195 = metadata !{metadata !1196, metadata !1207, metadata !1211, metadata !1216, metadata !1222, metadata !1225, metadata !1228, metadata !1231, metadata !1234, metadata !1237, metadata !1240, metadata !1243, metadata !1246, metadata !1249, metadata !1252, metadata !1255, metadata !1258, metadata !1261, metadata !1264, metadata !1267, metadata !1270, metadata !1274, metadata !1277, metadata !1280, metadata !1281, metadata !1285, metadata !1288, metadata !1291, metadata !1294, metadata !1297, metadata !1300, metadata !1303, metadata !1306, metadata !1309, metadata !1312, metadata !1315, metadata !1318, metadata !1327, metadata !1330, metadata !1333, metadata !1336, metadata !1339, metadata !1342, metadata !1345, metadata !1348, metadata !1351, metadata !1354, metadata !1357, metadata !1360, metadata !1363, metadata !1364, metadata !1368, metadata !1371, metadata !1372, metadata !1373, metadata !1374, metadata !1375, metadata !1376, metadata !1379, metadata !1380, metadata !1383, metadata !1384, metadata !1385, metadata !1386, metadata !1387, metadata !1388, metadata !1391, metadata !1392, metadata !1393, metadata !1396, metadata !1397, metadata !1400, metadata !1401, metadata !2393, metadata !2397, metadata !2398, metadata !2401, metadata !2402, metadata !2441, metadata !2442, metadata !2443, metadata !2444, metadata !2447, metadata !2448, metadata !2449, metadata !2450, metadata !2451, metadata !2452, metadata !2453, metadata !2454, metadata !2455, metadata !2456, metadata !2457, metadata !2458, metadata !2461, metadata !2464, metadata !2467}
!1196 = metadata !{i32 786460, metadata !1194, null, metadata !92, i32 0, i64 0, i64 0, i64 0, i32 0, metadata !1197} ; [ DW_TAG_inheritance ]
